
obfuscatedbinary:     file format mach-o-arm64


Disassembly of section .text:

00000001000020a0 <__Z3Addii>:
   1000020a0:	d10043ff 	sub	sp, sp, #0x10
   1000020a4:	b9000fe0 	str	w0, [sp, #12]
   1000020a8:	b9000be1 	str	w1, [sp, #8]
   1000020ac:	b9400fe8 	ldr	w8, [sp, #12]
   1000020b0:	b9400be9 	ldr	w9, [sp, #8]
   1000020b4:	1280000a 	mov	w10, #0xffffffff            	// #-1
   1000020b8:	4a0a012a 	eor	w10, w9, w10
   1000020bc:	1280000b 	mov	w11, #0xffffffff            	// #-1
   1000020c0:	0a0b014a 	and	w10, w10, w11
   1000020c4:	1280000b 	mov	w11, #0xffffffff            	// #-1
   1000020c8:	4a0b016b 	eor	w11, w11, w11
   1000020cc:	0a0b012b 	and	w11, w9, w11
   1000020d0:	2a0b014a 	orr	w10, w10, w11
   1000020d4:	1280000b 	mov	w11, #0xffffffff            	// #-1
   1000020d8:	4a0b010b 	eor	w11, w8, w11
   1000020dc:	0a0b014b 	and	w11, w10, w11
   1000020e0:	1280000c 	mov	w12, #0xffffffff            	// #-1
   1000020e4:	4a0c014a 	eor	w10, w10, w12
   1000020e8:	0a0a010a 	and	w10, w8, w10
   1000020ec:	2a0a016a 	orr	w10, w11, w10
   1000020f0:	1280000b 	mov	w11, #0xffffffff            	// #-1
   1000020f4:	4a0b010b 	eor	w11, w8, w11
   1000020f8:	4a0b014b 	eor	w11, w10, w11
   1000020fc:	0a0a016a 	and	w10, w11, w10
   100002100:	1280000b 	mov	w11, #0xffffffff            	// #-1
   100002104:	4a0b012b 	eor	w11, w9, w11
   100002108:	4a0b010b 	eor	w11, w8, w11
   10000210c:	0a08016b 	and	w11, w11, w8
   100002110:	1280000c 	mov	w12, #0xffffffff            	// #-1
   100002114:	4a0c010c 	eor	w12, w8, w12
   100002118:	0a0c012c 	and	w12, w9, w12
   10000211c:	1280000d 	mov	w13, #0xffffffff            	// #-1
   100002120:	4a0d0129 	eor	w9, w9, w13
   100002124:	0a090108 	and	w8, w8, w9
   100002128:	2a080188 	orr	w8, w12, w8
   10000212c:	0a080169 	and	w9, w11, w8
   100002130:	4a080168 	eor	w8, w11, w8
   100002134:	2a080128 	orr	w8, w9, w8
   100002138:	12800009 	mov	w9, #0xffffffff            	// #-1
   10000213c:	4a090109 	eor	w9, w8, w9
   100002140:	4a090149 	eor	w9, w10, w9
   100002144:	0a0a0129 	and	w9, w9, w10
   100002148:	0a08014b 	and	w11, w10, w8
   10000214c:	4a080148 	eor	w8, w10, w8
   100002150:	2a080168 	orr	w8, w11, w8
   100002154:	0a08012a 	and	w10, w9, w8
   100002158:	2a080128 	orr	w8, w9, w8
   10000215c:	0b080140 	add	w0, w10, w8
   100002160:	910043ff 	add	sp, sp, #0x10
   100002164:	d65f03c0 	ret

0000000100002168 <__Z8Subtractii>:
   100002168:	d100c3ff 	sub	sp, sp, #0x30
   10000216c:	a9014ff4 	stp	x20, x19, [sp, #16]
   100002170:	a9027bfd 	stp	x29, x30, [sp, #32]
   100002174:	910083fd 	add	x29, sp, #0x20
   100002178:	b9000fe0 	str	w0, [sp, #12]
   10000217c:	b9000be1 	str	w1, [sp, #8]
   100002180:	910033e0 	add	x0, sp, #0xc
   100002184:	910023e1 	add	x1, sp, #0x8
   100002188:	9400004a 	bl	1000022b0 <__ZNSt3__13maxB8ue170006IiEERKT_S3_S3_>
   10000218c:	b9400013 	ldr	w19, [x0]
   100002190:	910033e0 	add	x0, sp, #0xc
   100002194:	910023e1 	add	x1, sp, #0x8
   100002198:	94000051 	bl	1000022dc <__ZNSt3__13minB8ue170006IiEERKT_S3_S3_>
   10000219c:	b9400008 	ldr	w8, [x0]
   1000021a0:	5299d029 	mov	w9, #0xce81                	// #52865
   1000021a4:	72ba7b89 	movk	w9, #0xd3dc, lsl #16
   1000021a8:	1280000a 	mov	w10, #0xffffffff            	// #-1
   1000021ac:	4a0a0129 	eor	w9, w9, w10
   1000021b0:	4a090269 	eor	w9, w19, w9
   1000021b4:	0a130129 	and	w9, w9, w19
   1000021b8:	5299d02a 	mov	w10, #0xce81                	// #52865
   1000021bc:	72ba7b8a 	movk	w10, #0xd3dc, lsl #16
   1000021c0:	0a0a026a 	and	w10, w19, w10
   1000021c4:	5299d02b 	mov	w11, #0xce81                	// #52865
   1000021c8:	72ba7b8b 	movk	w11, #0xd3dc, lsl #16
   1000021cc:	4a0b026b 	eor	w11, w19, w11
   1000021d0:	2a0b014a 	orr	w10, w10, w11
   1000021d4:	0a0a012b 	and	w11, w9, w10
   1000021d8:	2a0a0129 	orr	w9, w9, w10
   1000021dc:	0b090169 	add	w9, w11, w9
   1000021e0:	52835fca 	mov	w10, #0x1afe                	// #6910
   1000021e4:	72b2ffca 	movk	w10, #0x97fe, lsl #16
   1000021e8:	0a0a012a 	and	w10, w9, w10
   1000021ec:	52835fcb 	mov	w11, #0x1afe                	// #6910
   1000021f0:	72b2ffcb 	movk	w11, #0x97fe, lsl #16
   1000021f4:	2a0b0129 	orr	w9, w9, w11
   1000021f8:	0b090149 	add	w9, w10, w9
   1000021fc:	529a944a 	mov	w10, #0xd4a2                	// #54434
   100002200:	72a2468a 	movk	w10, #0x1234, lsl #16
   100002204:	0b0a0129 	add	w9, w9, w10
   100002208:	4b080128 	sub	w8, w9, w8
   10000220c:	529a9449 	mov	w9, #0xd4a2                	// #54434
   100002210:	72a24689 	movk	w9, #0x1234, lsl #16
   100002214:	4b090108 	sub	w8, w8, w9
   100002218:	52837189 	mov	w9, #0x1b8c                	// #7052
   10000221c:	72be26a9 	movk	w9, #0xf135, lsl #16
   100002220:	0b090108 	add	w8, w8, w9
   100002224:	52835fc9 	mov	w9, #0x1afe                	// #6910
   100002228:	72b2ffc9 	movk	w9, #0x97fe, lsl #16
   10000222c:	4b090108 	sub	w8, w8, w9
   100002230:	52837189 	mov	w9, #0x1b8c                	// #7052
   100002234:	72be26a9 	movk	w9, #0xf135, lsl #16
   100002238:	4b090108 	sub	w8, w8, w9
   10000223c:	528f87c9 	mov	w9, #0x7c3e                	// #31806
   100002240:	72a98b89 	movk	w9, #0x4c5c, lsl #16
   100002244:	0a090109 	and	w9, w8, w9
   100002248:	528f87ca 	mov	w10, #0x7c3e                	// #31806
   10000224c:	72a98b8a 	movk	w10, #0x4c5c, lsl #16
   100002250:	2a0a0108 	orr	w8, w8, w10
   100002254:	0b080128 	add	w8, w9, w8
   100002258:	52980269 	mov	w9, #0xc013                	// #49171
   10000225c:	72a25c09 	movk	w9, #0x12e0, lsl #16
   100002260:	0b090108 	add	w8, w8, w9
   100002264:	5299d029 	mov	w9, #0xce81                	// #52865
   100002268:	72ba7b89 	movk	w9, #0xd3dc, lsl #16
   10000226c:	4b090108 	sub	w8, w8, w9
   100002270:	52980269 	mov	w9, #0xc013                	// #49171
   100002274:	72a25c09 	movk	w9, #0x12e0, lsl #16
   100002278:	4b090108 	sub	w8, w8, w9
   10000227c:	528e61c9 	mov	w9, #0x730e                	// #29454
   100002280:	72a6d549 	movk	w9, #0x36aa, lsl #16
   100002284:	0b090108 	add	w8, w8, w9
   100002288:	528f87c9 	mov	w9, #0x7c3e                	// #31806
   10000228c:	72a98b89 	movk	w9, #0x4c5c, lsl #16
   100002290:	4b090108 	sub	w8, w8, w9
   100002294:	528e61c9 	mov	w9, #0x730e                	// #29454
   100002298:	72a6d549 	movk	w9, #0x36aa, lsl #16
   10000229c:	4b090100 	sub	w0, w8, w9
   1000022a0:	a9427bfd 	ldp	x29, x30, [sp, #32]
   1000022a4:	a9414ff4 	ldp	x20, x19, [sp, #16]
   1000022a8:	9100c3ff 	add	sp, sp, #0x30
   1000022ac:	d65f03c0 	ret

00000001000022b0 <__ZNSt3__13maxB8ue170006IiEERKT_S3_S3_>:
   1000022b0:	d100c3ff 	sub	sp, sp, #0x30
   1000022b4:	a9027bfd 	stp	x29, x30, [sp, #32]
   1000022b8:	910083fd 	add	x29, sp, #0x20
   1000022bc:	f81f83a0 	stur	x0, [x29, #-8]
   1000022c0:	f9000be1 	str	x1, [sp, #16]
   1000022c4:	f85f83a0 	ldur	x0, [x29, #-8]
   1000022c8:	f9400be1 	ldr	x1, [sp, #16]
   1000022cc:	940001b1 	bl	100002990 <__ZNSt3__13maxB8ue170006IiNS_6__lessIvvEEEERKT_S5_S5_T0_>
   1000022d0:	a9427bfd 	ldp	x29, x30, [sp, #32]
   1000022d4:	9100c3ff 	add	sp, sp, #0x30
   1000022d8:	d65f03c0 	ret

00000001000022dc <__ZNSt3__13minB8ue170006IiEERKT_S3_S3_>:
   1000022dc:	d100c3ff 	sub	sp, sp, #0x30
   1000022e0:	a9027bfd 	stp	x29, x30, [sp, #32]
   1000022e4:	910083fd 	add	x29, sp, #0x20
   1000022e8:	f81f83a0 	stur	x0, [x29, #-8]
   1000022ec:	f9000be1 	str	x1, [sp, #16]
   1000022f0:	f85f83a0 	ldur	x0, [x29, #-8]
   1000022f4:	f9400be1 	ldr	x1, [sp, #16]
   1000022f8:	940001c3 	bl	100002a04 <__ZNSt3__13minB8ue170006IiNS_6__lessIvvEEEERKT_S5_S5_T0_>
   1000022fc:	a9427bfd 	ldp	x29, x30, [sp, #32]
   100002300:	9100c3ff 	add	sp, sp, #0x30
   100002304:	d65f03c0 	ret

0000000100002308 <__Z9binaryANDii>:
   100002308:	d10043ff 	sub	sp, sp, #0x10
   10000230c:	b9000fe0 	str	w0, [sp, #12]
   100002310:	b9000be1 	str	w1, [sp, #8]
   100002314:	b9400fe8 	ldr	w8, [sp, #12]
   100002318:	b9400be9 	ldr	w9, [sp, #8]
   10000231c:	1280000a 	mov	w10, #0xffffffff            	// #-1
   100002320:	4a0a012a 	eor	w10, w9, w10
   100002324:	1280000b 	mov	w11, #0xffffffff            	// #-1
   100002328:	0a0b014a 	and	w10, w10, w11
   10000232c:	1280000b 	mov	w11, #0xffffffff            	// #-1
   100002330:	4a0b016b 	eor	w11, w11, w11
   100002334:	0a0b012b 	and	w11, w9, w11
   100002338:	2a0b014a 	orr	w10, w10, w11
   10000233c:	1280000b 	mov	w11, #0xffffffff            	// #-1
   100002340:	1280000c 	mov	w12, #0xffffffff            	// #-1
   100002344:	4a0c016b 	eor	w11, w11, w12
   100002348:	4a0b014a 	eor	w10, w10, w11
   10000234c:	1280000b 	mov	w11, #0xffffffff            	// #-1
   100002350:	0a0b014a 	and	w10, w10, w11
   100002354:	1280000b 	mov	w11, #0xffffffff            	// #-1
   100002358:	4a0b016b 	eor	w11, w11, w11
   10000235c:	1280000c 	mov	w12, #0xffffffff            	// #-1
   100002360:	0a0c016b 	and	w11, w11, w12
   100002364:	1280000c 	mov	w12, #0xffffffff            	// #-1
   100002368:	4a0c018c 	eor	w12, w12, w12
   10000236c:	1280000d 	mov	w13, #0xffffffff            	// #-1
   100002370:	0a0d018c 	and	w12, w12, w13
   100002374:	2a0c016b 	orr	w11, w11, w12
   100002378:	1280000c 	mov	w12, #0xffffffff            	// #-1
   10000237c:	4a0c016b 	eor	w11, w11, w12
   100002380:	4a0b012b 	eor	w11, w9, w11
   100002384:	0a090169 	and	w9, w11, w9
   100002388:	0a09014b 	and	w11, w10, w9
   10000238c:	4a090149 	eor	w9, w10, w9
   100002390:	2a090169 	orr	w9, w11, w9
   100002394:	1280000a 	mov	w10, #0xffffffff            	// #-1
   100002398:	4a0a010a 	eor	w10, w8, w10
   10000239c:	1280000b 	mov	w11, #0xffffffff            	// #-1
   1000023a0:	0a0b014a 	and	w10, w10, w11
   1000023a4:	1280000b 	mov	w11, #0xffffffff            	// #-1
   1000023a8:	4a0b016b 	eor	w11, w11, w11
   1000023ac:	0a0b010b 	and	w11, w8, w11
   1000023b0:	2a0b014a 	orr	w10, w10, w11
   1000023b4:	1280000b 	mov	w11, #0xffffffff            	// #-1
   1000023b8:	4a0b014a 	eor	w10, w10, w11
   1000023bc:	4a0a012a 	eor	w10, w9, w10
   1000023c0:	0a09014a 	and	w10, w10, w9
   1000023c4:	1280000b 	mov	w11, #0xffffffff            	// #-1
   1000023c8:	4a0b012b 	eor	w11, w9, w11
   1000023cc:	1280000c 	mov	w12, #0xffffffff            	// #-1
   1000023d0:	0a0c016b 	and	w11, w11, w12
   1000023d4:	1280000c 	mov	w12, #0xffffffff            	// #-1
   1000023d8:	4a0c018c 	eor	w12, w12, w12
   1000023dc:	0a0c0129 	and	w9, w9, w12
   1000023e0:	2a090169 	orr	w9, w11, w9
   1000023e4:	1280000b 	mov	w11, #0xffffffff            	// #-1
   1000023e8:	4a0b010b 	eor	w11, w8, w11
   1000023ec:	4a090169 	eor	w9, w11, w9
   1000023f0:	0a080129 	and	w9, w9, w8
   1000023f4:	0a09014b 	and	w11, w10, w9
   1000023f8:	4a090149 	eor	w9, w10, w9
   1000023fc:	2a090169 	orr	w9, w11, w9
   100002400:	1280000a 	mov	w10, #0xffffffff            	// #-1
   100002404:	4a0a010a 	eor	w10, w8, w10
   100002408:	1280000b 	mov	w11, #0xffffffff            	// #-1
   10000240c:	0a0b014a 	and	w10, w10, w11
   100002410:	1280000b 	mov	w11, #0xffffffff            	// #-1
   100002414:	4a0b016b 	eor	w11, w11, w11
   100002418:	0a0b0108 	and	w8, w8, w11
   10000241c:	2a080148 	orr	w8, w10, w8
   100002420:	1280000a 	mov	w10, #0xffffffff            	// #-1
   100002424:	4a0a012a 	eor	w10, w9, w10
   100002428:	0a0a010a 	and	w10, w8, w10
   10000242c:	1280000b 	mov	w11, #0xffffffff            	// #-1
   100002430:	4a0b0108 	eor	w8, w8, w11
   100002434:	0a080128 	and	w8, w9, w8
   100002438:	2a080148 	orr	w8, w10, w8
   10000243c:	1280000a 	mov	w10, #0xffffffff            	// #-1
   100002440:	4a0a0129 	eor	w9, w9, w10
   100002444:	4a090109 	eor	w9, w8, w9
   100002448:	0a080120 	and	w0, w9, w8
   10000244c:	910043ff 	add	sp, sp, #0x10
   100002450:	d65f03c0 	ret

0000000100002454 <__Z8binaryORii>:
   100002454:	d10043ff 	sub	sp, sp, #0x10
   100002458:	b9000fe0 	str	w0, [sp, #12]
   10000245c:	b9000be1 	str	w1, [sp, #8]
   100002460:	b9400fe8 	ldr	w8, [sp, #12]
   100002464:	b9400be9 	ldr	w9, [sp, #8]
   100002468:	1280000a 	mov	w10, #0xffffffff            	// #-1
   10000246c:	4a0a012a 	eor	w10, w9, w10
   100002470:	1280000b 	mov	w11, #0xffffffff            	// #-1
   100002474:	0a0b014a 	and	w10, w10, w11
   100002478:	1280000b 	mov	w11, #0xffffffff            	// #-1
   10000247c:	4a0b016b 	eor	w11, w11, w11
   100002480:	0a0b012b 	and	w11, w9, w11
   100002484:	2a0b014a 	orr	w10, w10, w11
   100002488:	1280000b 	mov	w11, #0xffffffff            	// #-1
   10000248c:	4a0b010b 	eor	w11, w8, w11
   100002490:	0a0b014b 	and	w11, w10, w11
   100002494:	1280000c 	mov	w12, #0xffffffff            	// #-1
   100002498:	4a0c014a 	eor	w10, w10, w12
   10000249c:	0a0a010a 	and	w10, w8, w10
   1000024a0:	2a0a016a 	orr	w10, w11, w10
   1000024a4:	1280000b 	mov	w11, #0xffffffff            	// #-1
   1000024a8:	4a0b010b 	eor	w11, w8, w11
   1000024ac:	4a0b014b 	eor	w11, w10, w11
   1000024b0:	0a0a016a 	and	w10, w11, w10
   1000024b4:	1280000b 	mov	w11, #0xffffffff            	// #-1
   1000024b8:	4a0b010b 	eor	w11, w8, w11
   1000024bc:	1280000c 	mov	w12, #0xffffffff            	// #-1
   1000024c0:	0a0c016b 	and	w11, w11, w12
   1000024c4:	1280000c 	mov	w12, #0xffffffff            	// #-1
   1000024c8:	4a0c018c 	eor	w12, w12, w12
   1000024cc:	0a0c010c 	and	w12, w8, w12
   1000024d0:	2a0c016b 	orr	w11, w11, w12
   1000024d4:	1280000c 	mov	w12, #0xffffffff            	// #-1
   1000024d8:	4a0c012c 	eor	w12, w9, w12
   1000024dc:	4a0b018b 	eor	w11, w12, w11
   1000024e0:	0a09016b 	and	w11, w11, w9
   1000024e4:	1280000c 	mov	w12, #0xffffffff            	// #-1
   1000024e8:	4a0c012c 	eor	w12, w9, w12
   1000024ec:	1280000d 	mov	w13, #0xffffffff            	// #-1
   1000024f0:	0a0d018c 	and	w12, w12, w13
   1000024f4:	1280000d 	mov	w13, #0xffffffff            	// #-1
   1000024f8:	4a0d01ad 	eor	w13, w13, w13
   1000024fc:	0a0d0129 	and	w9, w9, w13
   100002500:	2a090189 	orr	w9, w12, w9
   100002504:	1280000c 	mov	w12, #0xffffffff            	// #-1
   100002508:	4a0c010c 	eor	w12, w8, w12
   10000250c:	4a090189 	eor	w9, w12, w9
   100002510:	0a080128 	and	w8, w9, w8
   100002514:	0a080169 	and	w9, w11, w8
   100002518:	4a080168 	eor	w8, w11, w8
   10000251c:	2a080128 	orr	w8, w9, w8
   100002520:	12800009 	mov	w9, #0xffffffff            	// #-1
   100002524:	4a090109 	eor	w9, w8, w9
   100002528:	4a090149 	eor	w9, w10, w9
   10000252c:	0a0a0129 	and	w9, w9, w10
   100002530:	1280000b 	mov	w11, #0xffffffff            	// #-1
   100002534:	4a0b014b 	eor	w11, w10, w11
   100002538:	0a0b010b 	and	w11, w8, w11
   10000253c:	1280000c 	mov	w12, #0xffffffff            	// #-1
   100002540:	4a0c0108 	eor	w8, w8, w12
   100002544:	0a080148 	and	w8, w10, w8
   100002548:	2a080168 	orr	w8, w11, w8
   10000254c:	0a08012a 	and	w10, w9, w8
   100002550:	4a080128 	eor	w8, w9, w8
   100002554:	2a080140 	orr	w0, w10, w8
   100002558:	910043ff 	add	sp, sp, #0x10
   10000255c:	d65f03c0 	ret

0000000100002560 <__Z9binaryXORii>:
   100002560:	d10043ff 	sub	sp, sp, #0x10
   100002564:	b9000fe0 	str	w0, [sp, #12]
   100002568:	b9000be1 	str	w1, [sp, #8]
   10000256c:	b9400fe8 	ldr	w8, [sp, #12]
   100002570:	b9400be9 	ldr	w9, [sp, #8]
   100002574:	1280000a 	mov	w10, #0xffffffff            	// #-1
   100002578:	4a0a010a 	eor	w10, w8, w10
   10000257c:	1280000b 	mov	w11, #0xffffffff            	// #-1
   100002580:	0a0b014a 	and	w10, w10, w11
   100002584:	1280000b 	mov	w11, #0xffffffff            	// #-1
   100002588:	4a0b016b 	eor	w11, w11, w11
   10000258c:	0a0b010b 	and	w11, w8, w11
   100002590:	2a0b014a 	orr	w10, w10, w11
   100002594:	1280000b 	mov	w11, #0xffffffff            	// #-1
   100002598:	1280000c 	mov	w12, #0xffffffff            	// #-1
   10000259c:	4a0c016b 	eor	w11, w11, w12
   1000025a0:	4a0b014a 	eor	w10, w10, w11
   1000025a4:	1280000b 	mov	w11, #0xffffffff            	// #-1
   1000025a8:	0a0b014a 	and	w10, w10, w11
   1000025ac:	1280000b 	mov	w11, #0xffffffff            	// #-1
   1000025b0:	4a0b016b 	eor	w11, w11, w11
   1000025b4:	1280000c 	mov	w12, #0xffffffff            	// #-1
   1000025b8:	0a0c016b 	and	w11, w11, w12
   1000025bc:	1280000c 	mov	w12, #0xffffffff            	// #-1
   1000025c0:	4a0c018c 	eor	w12, w12, w12
   1000025c4:	1280000d 	mov	w13, #0xffffffff            	// #-1
   1000025c8:	0a0d018c 	and	w12, w12, w13
   1000025cc:	2a0c016b 	orr	w11, w11, w12
   1000025d0:	1280000c 	mov	w12, #0xffffffff            	// #-1
   1000025d4:	4a0c016b 	eor	w11, w11, w12
   1000025d8:	4a0b010b 	eor	w11, w8, w11
   1000025dc:	0a08016b 	and	w11, w11, w8
   1000025e0:	0a0b014c 	and	w12, w10, w11
   1000025e4:	4a0b014a 	eor	w10, w10, w11
   1000025e8:	2a0a018a 	orr	w10, w12, w10
   1000025ec:	1280000b 	mov	w11, #0xffffffff            	// #-1
   1000025f0:	4a0b014b 	eor	w11, w10, w11
   1000025f4:	1280000c 	mov	w12, #0xffffffff            	// #-1
   1000025f8:	0a0c016b 	and	w11, w11, w12
   1000025fc:	1280000c 	mov	w12, #0xffffffff            	// #-1
   100002600:	4a0c018c 	eor	w12, w12, w12
   100002604:	0a0c014a 	and	w10, w10, w12
   100002608:	2a0a016a 	orr	w10, w11, w10
   10000260c:	1280000b 	mov	w11, #0xffffffff            	// #-1
   100002610:	4a0b012b 	eor	w11, w9, w11
   100002614:	0a0b014b 	and	w11, w10, w11
   100002618:	1280000c 	mov	w12, #0xffffffff            	// #-1
   10000261c:	4a0c014a 	eor	w10, w10, w12
   100002620:	0a0a012a 	and	w10, w9, w10
   100002624:	2a0a016a 	orr	w10, w11, w10
   100002628:	1280000b 	mov	w11, #0xffffffff            	// #-1
   10000262c:	4a0b012b 	eor	w11, w9, w11
   100002630:	4a0b014b 	eor	w11, w10, w11
   100002634:	0a0a016a 	and	w10, w11, w10
   100002638:	1280000b 	mov	w11, #0xffffffff            	// #-1
   10000263c:	4a0b012b 	eor	w11, w9, w11
   100002640:	1280000c 	mov	w12, #0xffffffff            	// #-1
   100002644:	0a0c016b 	and	w11, w11, w12
   100002648:	1280000c 	mov	w12, #0xffffffff            	// #-1
   10000264c:	4a0c018c 	eor	w12, w12, w12
   100002650:	0a0c012c 	and	w12, w9, w12
   100002654:	2a0c016b 	orr	w11, w11, w12
   100002658:	1280000c 	mov	w12, #0xffffffff            	// #-1
   10000265c:	1280000d 	mov	w13, #0xffffffff            	// #-1
   100002660:	4a0d018c 	eor	w12, w12, w13
   100002664:	4a0c016b 	eor	w11, w11, w12
   100002668:	1280000c 	mov	w12, #0xffffffff            	// #-1
   10000266c:	0a0c016b 	and	w11, w11, w12
   100002670:	1280000c 	mov	w12, #0xffffffff            	// #-1
   100002674:	4a0c018c 	eor	w12, w12, w12
   100002678:	1280000d 	mov	w13, #0xffffffff            	// #-1
   10000267c:	0a0d018c 	and	w12, w12, w13
   100002680:	1280000d 	mov	w13, #0xffffffff            	// #-1
   100002684:	4a0d01ad 	eor	w13, w13, w13
   100002688:	1280000e 	mov	w14, #0xffffffff            	// #-1
   10000268c:	0a0e01ad 	and	w13, w13, w14
   100002690:	2a0d018c 	orr	w12, w12, w13
   100002694:	1280000d 	mov	w13, #0xffffffff            	// #-1
   100002698:	4a0d018c 	eor	w12, w12, w13
   10000269c:	4a0c012c 	eor	w12, w9, w12
   1000026a0:	0a090189 	and	w9, w12, w9
   1000026a4:	0a09016c 	and	w12, w11, w9
   1000026a8:	4a090169 	eor	w9, w11, w9
   1000026ac:	2a090189 	orr	w9, w12, w9
   1000026b0:	1280000b 	mov	w11, #0xffffffff            	// #-1
   1000026b4:	4a0b012b 	eor	w11, w9, w11
   1000026b8:	1280000c 	mov	w12, #0xffffffff            	// #-1
   1000026bc:	0a0c016b 	and	w11, w11, w12
   1000026c0:	1280000c 	mov	w12, #0xffffffff            	// #-1
   1000026c4:	4a0c018c 	eor	w12, w12, w12
   1000026c8:	0a0c0129 	and	w9, w9, w12
   1000026cc:	2a090169 	orr	w9, w11, w9
   1000026d0:	1280000b 	mov	w11, #0xffffffff            	// #-1
   1000026d4:	4a0b010b 	eor	w11, w8, w11
   1000026d8:	0a0b012b 	and	w11, w9, w11
   1000026dc:	1280000c 	mov	w12, #0xffffffff            	// #-1
   1000026e0:	4a0c0129 	eor	w9, w9, w12
   1000026e4:	0a090109 	and	w9, w8, w9
   1000026e8:	2a090169 	orr	w9, w11, w9
   1000026ec:	1280000b 	mov	w11, #0xffffffff            	// #-1
   1000026f0:	4a0b0108 	eor	w8, w8, w11
   1000026f4:	4a080128 	eor	w8, w9, w8
   1000026f8:	0a090108 	and	w8, w8, w9
   1000026fc:	12800009 	mov	w9, #0xffffffff            	// #-1
   100002700:	4a090109 	eor	w9, w8, w9
   100002704:	4a090149 	eor	w9, w10, w9
   100002708:	0a0a0129 	and	w9, w9, w10
   10000270c:	1280000b 	mov	w11, #0xffffffff            	// #-1
   100002710:	4a0b014b 	eor	w11, w10, w11
   100002714:	0a0b010b 	and	w11, w8, w11
   100002718:	1280000c 	mov	w12, #0xffffffff            	// #-1
   10000271c:	4a0c0108 	eor	w8, w8, w12
   100002720:	0a080148 	and	w8, w10, w8
   100002724:	2a080168 	orr	w8, w11, w8
   100002728:	0a08012a 	and	w10, w9, w8
   10000272c:	4a080128 	eor	w8, w9, w8
   100002730:	2a080140 	orr	w0, w10, w8
   100002734:	910043ff 	add	sp, sp, #0x10
   100002738:	d65f03c0 	ret

000000010000273c <_main>:
   10000273c:	d100c3ff 	sub	sp, sp, #0x30
   100002740:	a9014ff4 	stp	x20, x19, [sp, #16]
   100002744:	a9027bfd 	stp	x29, x30, [sp, #32]
   100002748:	910083fd 	add	x29, sp, #0x20
   10000274c:	b9000fff 	str	wzr, [sp, #12]
   100002750:	d0000008 	adrp	x8, 100004000 <GCC_except_table51+0x1a4>
   100002754:	f9403100 	ldr	x0, [x8, #96]
   100002758:	b0000008 	adrp	x8, 100003000 <__ZNSt3__116__pad_and_outputB8ue170006IcNS_11char_traitsIcEEEENS_19ostreambuf_iteratorIT_T0_EES6_PKS4_S8_S8_RNS_8ios_baseES4_+0x2a8>
   10000275c:	9139b101 	add	x1, x8, #0xe6c
   100002760:	94000057 	bl	1000028bc <__ZNSt3__1lsB8ue170006INS_11char_traitsIcEEEERNS_13basic_ostreamIcT_EES6_PKc>
   100002764:	d0000008 	adrp	x8, 100004000 <GCC_except_table51+0x1a4>
   100002768:	f9402d00 	ldr	x0, [x8, #88]
   10000276c:	910023e1 	add	x1, sp, #0x8
   100002770:	94000579 	bl	100003d54 <__ZNSt3__118__constexpr_strlenB8ue170006EPKc+0x60>
   100002774:	910013e1 	add	x1, sp, #0x4
   100002778:	94000577 	bl	100003d54 <__ZNSt3__118__constexpr_strlenB8ue170006EPKc+0x60>
   10000277c:	d0000008 	adrp	x8, 100004000 <GCC_except_table51+0x1a4>
   100002780:	f9403100 	ldr	x0, [x8, #96]
   100002784:	b0000008 	adrp	x8, 100003000 <__ZNSt3__116__pad_and_outputB8ue170006IcNS_11char_traitsIcEEEENS_19ostreambuf_iteratorIT_T0_EES6_PKS4_S8_S8_RNS_8ios_baseES4_+0x2a8>
   100002788:	913a1d01 	add	x1, x8, #0xe87
   10000278c:	9400004c 	bl	1000028bc <__ZNSt3__1lsB8ue170006INS_11char_traitsIcEEEERNS_13basic_ostreamIcT_EES6_PKc>
   100002790:	aa0003f3 	mov	x19, x0
   100002794:	b9400be0 	ldr	w0, [sp, #8]
   100002798:	b94007e1 	ldr	w1, [sp, #4]
   10000279c:	97fffe41 	bl	1000020a0 <__Z3Addii>
   1000027a0:	aa0003e1 	mov	x1, x0
   1000027a4:	aa1303e0 	mov	x0, x19
   1000027a8:	9400057a 	bl	100003d90 <__ZNSt3__118__constexpr_strlenB8ue170006EPKc+0x9c>
   1000027ac:	90000008 	adrp	x8, 100002000 <__mh_execute_header+0x2000>
   1000027b0:	9124c101 	add	x1, x8, #0x930
   1000027b4:	94000054 	bl	100002904 <__ZNSt3__113basic_ostreamIcNS_11char_traitsIcEEElsB8ue170006EPFRS3_S4_E>
   1000027b8:	d0000008 	adrp	x8, 100004000 <GCC_except_table51+0x1a4>
   1000027bc:	f9403100 	ldr	x0, [x8, #96]
   1000027c0:	b0000008 	adrp	x8, 100003000 <__ZNSt3__116__pad_and_outputB8ue170006IcNS_11char_traitsIcEEEENS_19ostreambuf_iteratorIT_T0_EES6_PKS4_S8_S8_RNS_8ios_baseES4_+0x2a8>
   1000027c4:	913a4901 	add	x1, x8, #0xe92
   1000027c8:	9400003d 	bl	1000028bc <__ZNSt3__1lsB8ue170006INS_11char_traitsIcEEEERNS_13basic_ostreamIcT_EES6_PKc>
   1000027cc:	aa0003f3 	mov	x19, x0
   1000027d0:	b9400be0 	ldr	w0, [sp, #8]
   1000027d4:	b94007e1 	ldr	w1, [sp, #4]
   1000027d8:	97fffe64 	bl	100002168 <__Z8Subtractii>
   1000027dc:	aa0003e1 	mov	x1, x0
   1000027e0:	aa1303e0 	mov	x0, x19
   1000027e4:	9400056b 	bl	100003d90 <__ZNSt3__118__constexpr_strlenB8ue170006EPKc+0x9c>
   1000027e8:	90000008 	adrp	x8, 100002000 <__mh_execute_header+0x2000>
   1000027ec:	9124c101 	add	x1, x8, #0x930
   1000027f0:	94000045 	bl	100002904 <__ZNSt3__113basic_ostreamIcNS_11char_traitsIcEEElsB8ue170006EPFRS3_S4_E>
   1000027f4:	d0000008 	adrp	x8, 100004000 <GCC_except_table51+0x1a4>
   1000027f8:	f9403100 	ldr	x0, [x8, #96]
   1000027fc:	b0000008 	adrp	x8, 100003000 <__ZNSt3__116__pad_and_outputB8ue170006IcNS_11char_traitsIcEEEENS_19ostreambuf_iteratorIT_T0_EES6_PKS4_S8_S8_RNS_8ios_baseES4_+0x2a8>
   100002800:	913a8101 	add	x1, x8, #0xea0
   100002804:	9400002e 	bl	1000028bc <__ZNSt3__1lsB8ue170006INS_11char_traitsIcEEEERNS_13basic_ostreamIcT_EES6_PKc>
   100002808:	aa0003f3 	mov	x19, x0
   10000280c:	b9400be0 	ldr	w0, [sp, #8]
   100002810:	b94007e1 	ldr	w1, [sp, #4]
   100002814:	97fffebd 	bl	100002308 <__Z9binaryANDii>
   100002818:	aa0003e1 	mov	x1, x0
   10000281c:	aa1303e0 	mov	x0, x19
   100002820:	9400055c 	bl	100003d90 <__ZNSt3__118__constexpr_strlenB8ue170006EPKc+0x9c>
   100002824:	90000008 	adrp	x8, 100002000 <__mh_execute_header+0x2000>
   100002828:	9124c101 	add	x1, x8, #0x930
   10000282c:	94000036 	bl	100002904 <__ZNSt3__113basic_ostreamIcNS_11char_traitsIcEEElsB8ue170006EPFRS3_S4_E>
   100002830:	d0000008 	adrp	x8, 100004000 <GCC_except_table51+0x1a4>
   100002834:	f9403100 	ldr	x0, [x8, #96]
   100002838:	b0000008 	adrp	x8, 100003000 <__ZNSt3__116__pad_and_outputB8ue170006IcNS_11char_traitsIcEEEENS_19ostreambuf_iteratorIT_T0_EES6_PKS4_S8_S8_RNS_8ios_baseES4_+0x2a8>
   10000283c:	913ab501 	add	x1, x8, #0xead
   100002840:	9400001f 	bl	1000028bc <__ZNSt3__1lsB8ue170006INS_11char_traitsIcEEEERNS_13basic_ostreamIcT_EES6_PKc>
   100002844:	aa0003f3 	mov	x19, x0
   100002848:	b9400be0 	ldr	w0, [sp, #8]
   10000284c:	b94007e1 	ldr	w1, [sp, #4]
   100002850:	97ffff01 	bl	100002454 <__Z8binaryORii>
   100002854:	aa0003e1 	mov	x1, x0
   100002858:	aa1303e0 	mov	x0, x19
   10000285c:	9400054d 	bl	100003d90 <__ZNSt3__118__constexpr_strlenB8ue170006EPKc+0x9c>
   100002860:	90000008 	adrp	x8, 100002000 <__mh_execute_header+0x2000>
   100002864:	9124c101 	add	x1, x8, #0x930
   100002868:	94000027 	bl	100002904 <__ZNSt3__113basic_ostreamIcNS_11char_traitsIcEEElsB8ue170006EPFRS3_S4_E>
   10000286c:	d0000008 	adrp	x8, 100004000 <GCC_except_table51+0x1a4>
   100002870:	f9403100 	ldr	x0, [x8, #96]
   100002874:	b0000008 	adrp	x8, 100003000 <__ZNSt3__116__pad_and_outputB8ue170006IcNS_11char_traitsIcEEEENS_19ostreambuf_iteratorIT_T0_EES6_PKS4_S8_S8_RNS_8ios_baseES4_+0x2a8>
   100002878:	913ae501 	add	x1, x8, #0xeb9
   10000287c:	94000010 	bl	1000028bc <__ZNSt3__1lsB8ue170006INS_11char_traitsIcEEEERNS_13basic_ostreamIcT_EES6_PKc>
   100002880:	aa0003f3 	mov	x19, x0
   100002884:	b9400be0 	ldr	w0, [sp, #8]
   100002888:	b94007e1 	ldr	w1, [sp, #4]
   10000288c:	97ffff35 	bl	100002560 <__Z9binaryXORii>
   100002890:	aa0003e1 	mov	x1, x0
   100002894:	aa1303e0 	mov	x0, x19
   100002898:	9400053e 	bl	100003d90 <__ZNSt3__118__constexpr_strlenB8ue170006EPKc+0x9c>
   10000289c:	90000008 	adrp	x8, 100002000 <__mh_execute_header+0x2000>
   1000028a0:	9124c101 	add	x1, x8, #0x930
   1000028a4:	94000018 	bl	100002904 <__ZNSt3__113basic_ostreamIcNS_11char_traitsIcEEElsB8ue170006EPFRS3_S4_E>
   1000028a8:	52800000 	mov	w0, #0x0                   	// #0
   1000028ac:	a9427bfd 	ldp	x29, x30, [sp, #32]
   1000028b0:	a9414ff4 	ldp	x20, x19, [sp, #16]
   1000028b4:	9100c3ff 	add	sp, sp, #0x30
   1000028b8:	d65f03c0 	ret

00000001000028bc <__ZNSt3__1lsB8ue170006INS_11char_traitsIcEEEERNS_13basic_ostreamIcT_EES6_PKc>:
   1000028bc:	d100c3ff 	sub	sp, sp, #0x30
   1000028c0:	a9014ff4 	stp	x20, x19, [sp, #16]
   1000028c4:	a9027bfd 	stp	x29, x30, [sp, #32]
   1000028c8:	910083fd 	add	x29, sp, #0x20
   1000028cc:	f90007e0 	str	x0, [sp, #8]
   1000028d0:	f90003e1 	str	x1, [sp]
   1000028d4:	f94007f3 	ldr	x19, [sp, #8]
   1000028d8:	f94003f4 	ldr	x20, [sp]
   1000028dc:	f94003e0 	ldr	x0, [sp]
   1000028e0:	9400010c 	bl	100002d10 <__ZNSt3__111char_traitsIcE6lengthB8ue170006EPKc>
   1000028e4:	aa0003e2 	mov	x2, x0
   1000028e8:	aa1303e0 	mov	x0, x19
   1000028ec:	aa1403e1 	mov	x1, x20
   1000028f0:	94000055 	bl	100002a44 <__ZNSt3__124__put_character_sequenceB8ue170006IcNS_11char_traitsIcEEEERNS_13basic_ostreamIT_T0_EES7_PKS4_m>
   1000028f4:	a9427bfd 	ldp	x29, x30, [sp, #32]
   1000028f8:	a9414ff4 	ldp	x20, x19, [sp, #16]
   1000028fc:	9100c3ff 	add	sp, sp, #0x30
   100002900:	d65f03c0 	ret

0000000100002904 <__ZNSt3__113basic_ostreamIcNS_11char_traitsIcEEElsB8ue170006EPFRS3_S4_E>:
   100002904:	d10083ff 	sub	sp, sp, #0x20
   100002908:	a9017bfd 	stp	x29, x30, [sp, #16]
   10000290c:	910043fd 	add	x29, sp, #0x10
   100002910:	f90007e0 	str	x0, [sp, #8]
   100002914:	f90003e1 	str	x1, [sp]
   100002918:	f94007e0 	ldr	x0, [sp, #8]
   10000291c:	f94003e8 	ldr	x8, [sp]
   100002920:	d63f0100 	blr	x8
   100002924:	a9417bfd 	ldp	x29, x30, [sp, #16]
   100002928:	910083ff 	add	sp, sp, #0x20
   10000292c:	d65f03c0 	ret

0000000100002930 <__ZNSt3__14endlB8ue170006IcNS_11char_traitsIcEEEERNS_13basic_ostreamIT_T0_EES7_>:
   100002930:	d100c3ff 	sub	sp, sp, #0x30
   100002934:	a9014ff4 	stp	x20, x19, [sp, #16]
   100002938:	a9027bfd 	stp	x29, x30, [sp, #32]
   10000293c:	910083fd 	add	x29, sp, #0x20
   100002940:	f90007e0 	str	x0, [sp, #8]
   100002944:	f94007f3 	ldr	x19, [sp, #8]
   100002948:	f94007e8 	ldr	x8, [sp, #8]
   10000294c:	f9400109 	ldr	x9, [x8]
   100002950:	f85e8129 	ldur	x9, [x9, #-24]
   100002954:	8b090100 	add	x0, x8, x9
   100002958:	52800148 	mov	w8, #0xa                   	// #10
   10000295c:	13001d01 	sxtb	w1, w8
   100002960:	94000466 	bl	100003af8 <__ZNKSt3__19basic_iosIcNS_11char_traitsIcEEE5widenB8ue170006Ec>
   100002964:	aa0003e8 	mov	x8, x0
   100002968:	aa1303e0 	mov	x0, x19
   10000296c:	13001d01 	sxtb	w1, w8
   100002970:	940004fc 	bl	100003d60 <__ZNSt3__118__constexpr_strlenB8ue170006EPKc+0x6c>
   100002974:	f94007e0 	ldr	x0, [sp, #8]
   100002978:	940004fd 	bl	100003d6c <__ZNSt3__118__constexpr_strlenB8ue170006EPKc+0x78>
   10000297c:	f94007e0 	ldr	x0, [sp, #8]
   100002980:	a9427bfd 	ldp	x29, x30, [sp, #32]
   100002984:	a9414ff4 	ldp	x20, x19, [sp, #16]
   100002988:	9100c3ff 	add	sp, sp, #0x30
   10000298c:	d65f03c0 	ret

0000000100002990 <__ZNSt3__13maxB8ue170006IiNS_6__lessIvvEEEERKT_S5_S5_T0_>:
   100002990:	d100c3ff 	sub	sp, sp, #0x30
   100002994:	a9027bfd 	stp	x29, x30, [sp, #32]
   100002998:	910083fd 	add	x29, sp, #0x20
   10000299c:	f9000be0 	str	x0, [sp, #16]
   1000029a0:	f90007e1 	str	x1, [sp, #8]
   1000029a4:	f9400be1 	ldr	x1, [sp, #16]
   1000029a8:	f94007e2 	ldr	x2, [sp, #8]
   1000029ac:	d10007a0 	sub	x0, x29, #0x1
   1000029b0:	94000008 	bl	1000029d0 <__ZNKSt3__16__lessIvvEclB8ue170006IiiEEbRKT_RKT0_>
   1000029b4:	36000060 	tbz	w0, #0, 1000029c0 <__ZNSt3__13maxB8ue170006IiNS_6__lessIvvEEEERKT_S5_S5_T0_+0x30>
   1000029b8:	f94007e0 	ldr	x0, [sp, #8]
   1000029bc:	14000002 	b	1000029c4 <__ZNSt3__13maxB8ue170006IiNS_6__lessIvvEEEERKT_S5_S5_T0_+0x34>
   1000029c0:	f9400be0 	ldr	x0, [sp, #16]
   1000029c4:	a9427bfd 	ldp	x29, x30, [sp, #32]
   1000029c8:	9100c3ff 	add	sp, sp, #0x30
   1000029cc:	d65f03c0 	ret

00000001000029d0 <__ZNKSt3__16__lessIvvEclB8ue170006IiiEEbRKT_RKT0_>:
   1000029d0:	d10083ff 	sub	sp, sp, #0x20
   1000029d4:	f9000fe0 	str	x0, [sp, #24]
   1000029d8:	f9000be1 	str	x1, [sp, #16]
   1000029dc:	f90007e2 	str	x2, [sp, #8]
   1000029e0:	f9400be8 	ldr	x8, [sp, #16]
   1000029e4:	b9400108 	ldr	w8, [x8]
   1000029e8:	f94007e9 	ldr	x9, [sp, #8]
   1000029ec:	b9400129 	ldr	w9, [x9]
   1000029f0:	6b09011f 	cmp	w8, w9
   1000029f4:	1a9fa7e8 	cset	w8, lt  // lt = tstop
   1000029f8:	12000100 	and	w0, w8, #0x1
   1000029fc:	910083ff 	add	sp, sp, #0x20
   100002a00:	d65f03c0 	ret

0000000100002a04 <__ZNSt3__13minB8ue170006IiNS_6__lessIvvEEEERKT_S5_S5_T0_>:
   100002a04:	d100c3ff 	sub	sp, sp, #0x30
   100002a08:	a9027bfd 	stp	x29, x30, [sp, #32]
   100002a0c:	910083fd 	add	x29, sp, #0x20
   100002a10:	f9000be0 	str	x0, [sp, #16]
   100002a14:	f90007e1 	str	x1, [sp, #8]
   100002a18:	f94007e1 	ldr	x1, [sp, #8]
   100002a1c:	f9400be2 	ldr	x2, [sp, #16]
   100002a20:	d10007a0 	sub	x0, x29, #0x1
   100002a24:	97ffffeb 	bl	1000029d0 <__ZNKSt3__16__lessIvvEclB8ue170006IiiEEbRKT_RKT0_>
   100002a28:	36000060 	tbz	w0, #0, 100002a34 <__ZNSt3__13minB8ue170006IiNS_6__lessIvvEEEERKT_S5_S5_T0_+0x30>
   100002a2c:	f94007e0 	ldr	x0, [sp, #8]
   100002a30:	14000002 	b	100002a38 <__ZNSt3__13minB8ue170006IiNS_6__lessIvvEEEERKT_S5_S5_T0_+0x34>
   100002a34:	f9400be0 	ldr	x0, [sp, #16]
   100002a38:	a9427bfd 	ldp	x29, x30, [sp, #32]
   100002a3c:	9100c3ff 	add	sp, sp, #0x30
   100002a40:	d65f03c0 	ret

0000000100002a44 <__ZNSt3__124__put_character_sequenceB8ue170006IcNS_11char_traitsIcEEEERNS_13basic_ostreamIT_T0_EES7_PKS4_m>:
   100002a44:	d10203ff 	sub	sp, sp, #0x80
   100002a48:	a90557f6 	stp	x22, x21, [sp, #80]
   100002a4c:	a9064ff4 	stp	x20, x19, [sp, #96]
   100002a50:	a9077bfd 	stp	x29, x30, [sp, #112]
   100002a54:	9101c3fd 	add	x29, sp, #0x70
   100002a58:	f81d83a0 	stur	x0, [x29, #-40]
   100002a5c:	f81d03a1 	stur	x1, [x29, #-48]
   100002a60:	f9001fe2 	str	x2, [sp, #56]
   100002a64:	f85d83a1 	ldur	x1, [x29, #-40]
   100002a68:	9100a3e0 	add	x0, sp, #0x28
   100002a6c:	940004c3 	bl	100003d78 <__ZNSt3__118__constexpr_strlenB8ue170006EPKc+0x84>
   100002a70:	14000001 	b	100002a74 <__ZNSt3__124__put_character_sequenceB8ue170006IcNS_11char_traitsIcEEEERNS_13basic_ostreamIT_T0_EES7_PKS4_m+0x30>
   100002a74:	9100a3e0 	add	x0, sp, #0x28
   100002a78:	940000b1 	bl	100002d3c <__ZNKSt3__113basic_ostreamIcNS_11char_traitsIcEEE6sentrycvbB8ue170006Ev>
   100002a7c:	14000001 	b	100002a80 <__ZNSt3__124__put_character_sequenceB8ue170006IcNS_11char_traitsIcEEEERNS_13basic_ostreamIT_T0_EES7_PKS4_m+0x3c>
   100002a80:	36001320 	tbz	w0, #0, 100002ce4 <__ZNSt3__124__put_character_sequenceB8ue170006IcNS_11char_traitsIcEEEERNS_13basic_ostreamIT_T0_EES7_PKS4_m+0x2a0>
   100002a84:	14000001 	b	100002a88 <__ZNSt3__124__put_character_sequenceB8ue170006IcNS_11char_traitsIcEEEERNS_13basic_ostreamIT_T0_EES7_PKS4_m+0x44>
   100002a88:	f85d83a1 	ldur	x1, [x29, #-40]
   100002a8c:	910023e0 	add	x0, sp, #0x8
   100002a90:	940002b5 	bl	100003564 <__ZNSt3__119ostreambuf_iteratorIcNS_11char_traitsIcEEEC1B8ue170006ERNS_13basic_ostreamIcS2_EE>
   100002a94:	f85d03b3 	ldur	x19, [x29, #-48]
   100002a98:	f85d83a8 	ldur	x8, [x29, #-40]
   100002a9c:	f9400109 	ldr	x9, [x8]
   100002aa0:	f85e8129 	ldur	x9, [x9, #-24]
   100002aa4:	8b090100 	add	x0, x8, x9
   100002aa8:	940002be 	bl	1000035a0 <__ZNKSt3__18ios_base5flagsB8ue170006Ev>
   100002aac:	14000001 	b	100002ab0 <__ZNSt3__124__put_character_sequenceB8ue170006IcNS_11char_traitsIcEEEERNS_13basic_ostreamIT_T0_EES7_PKS4_m+0x6c>
   100002ab0:	52801608 	mov	w8, #0xb0                  	// #176
   100002ab4:	12800009 	mov	w9, #0xffffffff            	// #-1
   100002ab8:	4a090108 	eor	w8, w8, w9
   100002abc:	12800009 	mov	w9, #0xffffffff            	// #-1
   100002ac0:	0a090108 	and	w8, w8, w9
   100002ac4:	12800009 	mov	w9, #0xffffffff            	// #-1
   100002ac8:	4a090129 	eor	w9, w9, w9
   100002acc:	5280160a 	mov	w10, #0xb0                  	// #176
   100002ad0:	0a0a0129 	and	w9, w9, w10
   100002ad4:	2a090108 	orr	w8, w8, w9
   100002ad8:	12800009 	mov	w9, #0xffffffff            	// #-1
   100002adc:	1280000a 	mov	w10, #0xffffffff            	// #-1
   100002ae0:	4a0a0129 	eor	w9, w9, w10
   100002ae4:	4a090108 	eor	w8, w8, w9
   100002ae8:	12800009 	mov	w9, #0xffffffff            	// #-1
   100002aec:	0a090108 	and	w8, w8, w9
   100002af0:	12800009 	mov	w9, #0xffffffff            	// #-1
   100002af4:	4a090129 	eor	w9, w9, w9
   100002af8:	1280000a 	mov	w10, #0xffffffff            	// #-1
   100002afc:	0a0a0129 	and	w9, w9, w10
   100002b00:	1280000a 	mov	w10, #0xffffffff            	// #-1
   100002b04:	4a0a014a 	eor	w10, w10, w10
   100002b08:	1280000b 	mov	w11, #0xffffffff            	// #-1
   100002b0c:	0a0b014a 	and	w10, w10, w11
   100002b10:	2a0a0129 	orr	w9, w9, w10
   100002b14:	1280000a 	mov	w10, #0xffffffff            	// #-1
   100002b18:	5280160b 	mov	w11, #0xb0                  	// #176
   100002b1c:	4a0b014a 	eor	w10, w10, w11
   100002b20:	4a0a0129 	eor	w9, w9, w10
   100002b24:	5280160a 	mov	w10, #0xb0                  	// #176
   100002b28:	0a0a0129 	and	w9, w9, w10
   100002b2c:	0a09010a 	and	w10, w8, w9
   100002b30:	4a090108 	eor	w8, w8, w9
   100002b34:	2a080148 	orr	w8, w10, w8
   100002b38:	12800009 	mov	w9, #0xffffffff            	// #-1
   100002b3c:	4a090009 	eor	w9, w0, w9
   100002b40:	1280000a 	mov	w10, #0xffffffff            	// #-1
   100002b44:	0a0a0129 	and	w9, w9, w10
   100002b48:	1280000a 	mov	w10, #0xffffffff            	// #-1
   100002b4c:	4a0a014a 	eor	w10, w10, w10
   100002b50:	0a0a000a 	and	w10, w0, w10
   100002b54:	2a0a0129 	orr	w9, w9, w10
   100002b58:	1280000a 	mov	w10, #0xffffffff            	// #-1
   100002b5c:	4a0a010a 	eor	w10, w8, w10
   100002b60:	4a090149 	eor	w9, w10, w9
   100002b64:	0a080129 	and	w9, w9, w8
   100002b68:	1280000a 	mov	w10, #0xffffffff            	// #-1
   100002b6c:	4a0a010a 	eor	w10, w8, w10
   100002b70:	1280000b 	mov	w11, #0xffffffff            	// #-1
   100002b74:	0a0b014a 	and	w10, w10, w11
   100002b78:	1280000b 	mov	w11, #0xffffffff            	// #-1
   100002b7c:	4a0b016b 	eor	w11, w11, w11
   100002b80:	0a0b0108 	and	w8, w8, w11
   100002b84:	2a080148 	orr	w8, w10, w8
   100002b88:	1280000a 	mov	w10, #0xffffffff            	// #-1
   100002b8c:	4a0a0108 	eor	w8, w8, w10
   100002b90:	4a080008 	eor	w8, w0, w8
   100002b94:	0a000108 	and	w8, w8, w0
   100002b98:	0a08012a 	and	w10, w9, w8
   100002b9c:	4a080128 	eor	w8, w9, w8
   100002ba0:	2a080148 	orr	w8, w10, w8
   100002ba4:	12800009 	mov	w9, #0xffffffff            	// #-1
   100002ba8:	4a090009 	eor	w9, w0, w9
   100002bac:	1280000a 	mov	w10, #0xffffffff            	// #-1
   100002bb0:	0a0a0129 	and	w9, w9, w10
   100002bb4:	1280000a 	mov	w10, #0xffffffff            	// #-1
   100002bb8:	4a0a014a 	eor	w10, w10, w10
   100002bbc:	0a0a000a 	and	w10, w0, w10
   100002bc0:	2a0a0129 	orr	w9, w9, w10
   100002bc4:	1280000a 	mov	w10, #0xffffffff            	// #-1
   100002bc8:	4a0a010a 	eor	w10, w8, w10
   100002bcc:	0a0a012a 	and	w10, w9, w10
   100002bd0:	1280000b 	mov	w11, #0xffffffff            	// #-1
   100002bd4:	4a0b0129 	eor	w9, w9, w11
   100002bd8:	0a090109 	and	w9, w8, w9
   100002bdc:	2a090149 	orr	w9, w10, w9
   100002be0:	1280000a 	mov	w10, #0xffffffff            	// #-1
   100002be4:	4a0a0108 	eor	w8, w8, w10
   100002be8:	4a080128 	eor	w8, w9, w8
   100002bec:	0a090108 	and	w8, w8, w9
   100002bf0:	7100811f 	cmp	w8, #0x20
   100002bf4:	540000a1 	b.ne	100002c08 <__ZNSt3__124__put_character_sequenceB8ue170006IcNS_11char_traitsIcEEEERNS_13basic_ostreamIT_T0_EES7_PKS4_m+0x1c4>  // b.any
   100002bf8:	f85d03a8 	ldur	x8, [x29, #-48]
   100002bfc:	f9401fe9 	ldr	x9, [sp, #56]
   100002c00:	8b090114 	add	x20, x8, x9
   100002c04:	14000002 	b	100002c0c <__ZNSt3__124__put_character_sequenceB8ue170006IcNS_11char_traitsIcEEEERNS_13basic_ostreamIT_T0_EES7_PKS4_m+0x1c8>
   100002c08:	f85d03b4 	ldur	x20, [x29, #-48]
   100002c0c:	f85d03a8 	ldur	x8, [x29, #-48]
   100002c10:	f9401fe9 	ldr	x9, [sp, #56]
   100002c14:	8b090115 	add	x21, x8, x9
   100002c18:	f85d83a8 	ldur	x8, [x29, #-40]
   100002c1c:	f9400109 	ldr	x9, [x8]
   100002c20:	f85e8129 	ldur	x9, [x9, #-24]
   100002c24:	8b090116 	add	x22, x8, x9
   100002c28:	aa1603e0 	mov	x0, x22
   100002c2c:	94000263 	bl	1000035b8 <__ZNKSt3__19basic_iosIcNS_11char_traitsIcEEE4fillB8ue170006Ev>
   100002c30:	14000001 	b	100002c34 <__ZNSt3__124__put_character_sequenceB8ue170006IcNS_11char_traitsIcEEEERNS_13basic_ostreamIT_T0_EES7_PKS4_m+0x1f0>
   100002c34:	f94007e8 	ldr	x8, [sp, #8]
   100002c38:	13001c05 	sxtb	w5, w0
   100002c3c:	aa0803e0 	mov	x0, x8
   100002c40:	aa1303e1 	mov	x1, x19
   100002c44:	aa1403e2 	mov	x2, x20
   100002c48:	aa1503e3 	mov	x3, x21
   100002c4c:	aa1603e4 	mov	x4, x22
   100002c50:	94000042 	bl	100002d58 <__ZNSt3__116__pad_and_outputB8ue170006IcNS_11char_traitsIcEEEENS_19ostreambuf_iteratorIT_T0_EES6_PKS4_S8_S8_RNS_8ios_baseES4_>
   100002c54:	14000001 	b	100002c58 <__ZNSt3__124__put_character_sequenceB8ue170006IcNS_11char_traitsIcEEEERNS_13basic_ostreamIT_T0_EES7_PKS4_m+0x214>
   100002c58:	f9000be0 	str	x0, [sp, #16]
   100002c5c:	910043e0 	add	x0, sp, #0x10
   100002c60:	9400026c 	bl	100003610 <__ZNKSt3__119ostreambuf_iteratorIcNS_11char_traitsIcEEE6failedB8ue170006Ev>
   100002c64:	360003e0 	tbz	w0, #0, 100002ce0 <__ZNSt3__124__put_character_sequenceB8ue170006IcNS_11char_traitsIcEEEERNS_13basic_ostreamIT_T0_EES7_PKS4_m+0x29c>
   100002c68:	f85d83a8 	ldur	x8, [x29, #-40]
   100002c6c:	f9400109 	ldr	x9, [x8]
   100002c70:	f85e8129 	ldur	x9, [x9, #-24]
   100002c74:	8b090100 	add	x0, x8, x9
   100002c78:	528000a1 	mov	w1, #0x5                   	// #5
   100002c7c:	9400026e 	bl	100003634 <__ZNSt3__19basic_iosIcNS_11char_traitsIcEEE8setstateB8ue170006Ej>
   100002c80:	14000001 	b	100002c84 <__ZNSt3__124__put_character_sequenceB8ue170006IcNS_11char_traitsIcEEEERNS_13basic_ostreamIT_T0_EES7_PKS4_m+0x240>
   100002c84:	14000017 	b	100002ce0 <__ZNSt3__124__put_character_sequenceB8ue170006IcNS_11char_traitsIcEEEERNS_13basic_ostreamIT_T0_EES7_PKS4_m+0x29c>
   100002c88:	f90013e0 	str	x0, [sp, #32]
   100002c8c:	b9001fe1 	str	w1, [sp, #28]
   100002c90:	14000005 	b	100002ca4 <__ZNSt3__124__put_character_sequenceB8ue170006IcNS_11char_traitsIcEEEERNS_13basic_ostreamIT_T0_EES7_PKS4_m+0x260>
   100002c94:	f90013e0 	str	x0, [sp, #32]
   100002c98:	b9001fe1 	str	w1, [sp, #28]
   100002c9c:	9100a3e0 	add	x0, sp, #0x28
   100002ca0:	94000439 	bl	100003d84 <__ZNSt3__118__constexpr_strlenB8ue170006EPKc+0x90>
   100002ca4:	f94013e0 	ldr	x0, [sp, #32]
   100002ca8:	94000449 	bl	100003dcc <__ZNSt3__118__constexpr_strlenB8ue170006EPKc+0xd8>
   100002cac:	f85d83a8 	ldur	x8, [x29, #-40]
   100002cb0:	f9400109 	ldr	x9, [x8]
   100002cb4:	f85e8129 	ldur	x9, [x9, #-24]
   100002cb8:	8b090100 	add	x0, x8, x9
   100002cbc:	9400043b 	bl	100003da8 <__ZNSt3__118__constexpr_strlenB8ue170006EPKc+0xb4>
   100002cc0:	14000001 	b	100002cc4 <__ZNSt3__124__put_character_sequenceB8ue170006IcNS_11char_traitsIcEEEERNS_13basic_ostreamIT_T0_EES7_PKS4_m+0x280>
   100002cc4:	94000445 	bl	100003dd8 <__ZNSt3__118__constexpr_strlenB8ue170006EPKc+0xe4>
   100002cc8:	f85d83a0 	ldur	x0, [x29, #-40]
   100002ccc:	a9477bfd 	ldp	x29, x30, [sp, #112]
   100002cd0:	a9464ff4 	ldp	x20, x19, [sp, #96]
   100002cd4:	a94557f6 	ldp	x22, x21, [sp, #80]
   100002cd8:	910203ff 	add	sp, sp, #0x80
   100002cdc:	d65f03c0 	ret
   100002ce0:	14000001 	b	100002ce4 <__ZNSt3__124__put_character_sequenceB8ue170006IcNS_11char_traitsIcEEEERNS_13basic_ostreamIT_T0_EES7_PKS4_m+0x2a0>
   100002ce4:	9100a3e0 	add	x0, sp, #0x28
   100002ce8:	94000427 	bl	100003d84 <__ZNSt3__118__constexpr_strlenB8ue170006EPKc+0x90>
   100002cec:	17fffff7 	b	100002cc8 <__ZNSt3__124__put_character_sequenceB8ue170006IcNS_11char_traitsIcEEEERNS_13basic_ostreamIT_T0_EES7_PKS4_m+0x284>
   100002cf0:	f90013e0 	str	x0, [sp, #32]
   100002cf4:	b9001fe1 	str	w1, [sp, #28]
   100002cf8:	94000438 	bl	100003dd8 <__ZNSt3__118__constexpr_strlenB8ue170006EPKc+0xe4>
   100002cfc:	14000001 	b	100002d00 <__ZNSt3__124__put_character_sequenceB8ue170006IcNS_11char_traitsIcEEEERNS_13basic_ostreamIT_T0_EES7_PKS4_m+0x2bc>
   100002d00:	14000001 	b	100002d04 <__ZNSt3__124__put_character_sequenceB8ue170006IcNS_11char_traitsIcEEEERNS_13basic_ostreamIT_T0_EES7_PKS4_m+0x2c0>
   100002d04:	f94013e0 	ldr	x0, [sp, #32]
   100002d08:	94000404 	bl	100003d18 <__ZNSt3__118__constexpr_strlenB8ue170006EPKc+0x24>
   100002d0c:	94000255 	bl	100003660 <___clang_call_terminate>

0000000100002d10 <__ZNSt3__111char_traitsIcE6lengthB8ue170006EPKc>:
   100002d10:	d10083ff 	sub	sp, sp, #0x20
   100002d14:	a9017bfd 	stp	x29, x30, [sp, #16]
   100002d18:	910043fd 	add	x29, sp, #0x10
   100002d1c:	f90007e0 	str	x0, [sp, #8]
   100002d20:	f94007e0 	ldr	x0, [sp, #8]
   100002d24:	940003f4 	bl	100003cf4 <__ZNSt3__118__constexpr_strlenB8ue170006EPKc>
   100002d28:	14000001 	b	100002d2c <__ZNSt3__111char_traitsIcE6lengthB8ue170006EPKc+0x1c>
   100002d2c:	a9417bfd 	ldp	x29, x30, [sp, #16]
   100002d30:	910083ff 	add	sp, sp, #0x20
   100002d34:	d65f03c0 	ret
   100002d38:	9400024a 	bl	100003660 <___clang_call_terminate>

0000000100002d3c <__ZNKSt3__113basic_ostreamIcNS_11char_traitsIcEEE6sentrycvbB8ue170006Ev>:
   100002d3c:	d10043ff 	sub	sp, sp, #0x10
   100002d40:	f90007e0 	str	x0, [sp, #8]
   100002d44:	f94007e8 	ldr	x8, [sp, #8]
   100002d48:	39400108 	ldrb	w8, [x8]
   100002d4c:	12000100 	and	w0, w8, #0x1
   100002d50:	910043ff 	add	sp, sp, #0x10
   100002d54:	d65f03c0 	ret

0000000100002d58 <__ZNSt3__116__pad_and_outputB8ue170006IcNS_11char_traitsIcEEEENS_19ostreambuf_iteratorIT_T0_EES6_PKS4_S8_S8_RNS_8ios_baseES4_>:
   100002d58:	d10283ff 	sub	sp, sp, #0xa0
   100002d5c:	a9084ff4 	stp	x20, x19, [sp, #128]
   100002d60:	a9097bfd 	stp	x29, x30, [sp, #144]
   100002d64:	910243fd 	add	x29, sp, #0x90
   100002d68:	f81e03a0 	stur	x0, [x29, #-32]
   100002d6c:	f81d83a1 	stur	x1, [x29, #-40]
   100002d70:	f81d03a2 	stur	x2, [x29, #-48]
   100002d74:	f81c83a3 	stur	x3, [x29, #-56]
   100002d78:	f81c03a4 	stur	x4, [x29, #-64]
   100002d7c:	381bf3a5 	sturb	w5, [x29, #-65]
   100002d80:	f85e03a8 	ldur	x8, [x29, #-32]
   100002d84:	b5000088 	cbnz	x8, 100002d94 <__ZNSt3__116__pad_and_outputB8ue170006IcNS_11char_traitsIcEEEENS_19ostreambuf_iteratorIT_T0_EES6_PKS4_S8_S8_RNS_8ios_baseES4_+0x3c>
   100002d88:	f85e03a8 	ldur	x8, [x29, #-32]
   100002d8c:	f81e83a8 	stur	x8, [x29, #-24]
   100002d90:	140001ee 	b	100003548 <__ZNSt3__116__pad_and_outputB8ue170006IcNS_11char_traitsIcEEEENS_19ostreambuf_iteratorIT_T0_EES6_PKS4_S8_S8_RNS_8ios_baseES4_+0x7f0>
   100002d94:	f85c83a8 	ldur	x8, [x29, #-56]
   100002d98:	f85d83a9 	ldur	x9, [x29, #-40]
   100002d9c:	d2821a6a 	mov	x10, #0x10d3                	// #4307
   100002da0:	f2b363ca 	movk	x10, #0x9b1e, lsl #16
   100002da4:	f2c4a92a 	movk	x10, #0x2549, lsl #32
   100002da8:	f2e110ea 	movk	x10, #0x887, lsl #48
   100002dac:	9280000b 	mov	x11, #0xffffffffffffffff    	// #-1
   100002db0:	ca0b014a 	eor	x10, x10, x11
   100002db4:	ca0a010a 	eor	x10, x8, x10
   100002db8:	8a08014a 	and	x10, x10, x8
   100002dbc:	d2821a6b 	mov	x11, #0x10d3                	// #4307
   100002dc0:	f2b363cb 	movk	x11, #0x9b1e, lsl #16
   100002dc4:	f2c4a92b 	movk	x11, #0x2549, lsl #32
   100002dc8:	f2e110eb 	movk	x11, #0x887, lsl #48
   100002dcc:	8a0b010b 	and	x11, x8, x11
   100002dd0:	d2821a6c 	mov	x12, #0x10d3                	// #4307
   100002dd4:	f2b363cc 	movk	x12, #0x9b1e, lsl #16
   100002dd8:	f2c4a92c 	movk	x12, #0x2549, lsl #32
   100002ddc:	f2e110ec 	movk	x12, #0x887, lsl #48
   100002de0:	ca0c0108 	eor	x8, x8, x12
   100002de4:	aa080168 	orr	x8, x11, x8
   100002de8:	8a08014b 	and	x11, x10, x8
   100002dec:	aa080148 	orr	x8, x10, x8
   100002df0:	8b080168 	add	x8, x11, x8
   100002df4:	d29845aa 	mov	x10, #0xc22d                	// #49709
   100002df8:	f2a4cb2a 	movk	x10, #0x2659, lsl #16
   100002dfc:	f2c601aa 	movk	x10, #0x300d, lsl #32
   100002e00:	f2f16c0a 	movk	x10, #0x8b60, lsl #48
   100002e04:	8a0a010a 	and	x10, x8, x10
   100002e08:	d29845ab 	mov	x11, #0xc22d                	// #49709
   100002e0c:	f2a4cb2b 	movk	x11, #0x2659, lsl #16
   100002e10:	f2c601ab 	movk	x11, #0x300d, lsl #32
   100002e14:	f2f16c0b 	movk	x11, #0x8b60, lsl #48
   100002e18:	aa0b0108 	orr	x8, x8, x11
   100002e1c:	8b080148 	add	x8, x10, x8
   100002e20:	d28e0aca 	mov	x10, #0x7056                	// #28758
   100002e24:	f2b1ecea 	movk	x10, #0x8f67, lsl #16
   100002e28:	f2ce504a 	movk	x10, #0x7282, lsl #32
   100002e2c:	f2e8aa2a 	movk	x10, #0x4551, lsl #48
   100002e30:	8b0a0108 	add	x8, x8, x10
   100002e34:	cb090108 	sub	x8, x8, x9
   100002e38:	d28e0ac9 	mov	x9, #0x7056                	// #28758
   100002e3c:	f2b1ece9 	movk	x9, #0x8f67, lsl #16
   100002e40:	f2ce5049 	movk	x9, #0x7282, lsl #32
   100002e44:	f2e8aa29 	movk	x9, #0x4551, lsl #48
   100002e48:	cb090108 	sub	x8, x8, x9
   100002e4c:	d29674a9 	mov	x9, #0xb3a5                	// #45989
   100002e50:	f2aca8e9 	movk	x9, #0x6547, lsl #16
   100002e54:	f2cc5069 	movk	x9, #0x6283, lsl #32
   100002e58:	f2e04b49 	movk	x9, #0x25a, lsl #48
   100002e5c:	8b090108 	add	x8, x8, x9
   100002e60:	d29845a9 	mov	x9, #0xc22d                	// #49709
   100002e64:	f2a4cb29 	movk	x9, #0x2659, lsl #16
   100002e68:	f2c601a9 	movk	x9, #0x300d, lsl #32
   100002e6c:	f2f16c09 	movk	x9, #0x8b60, lsl #48
   100002e70:	cb090108 	sub	x8, x8, x9
   100002e74:	d29674a9 	mov	x9, #0xb3a5                	// #45989
   100002e78:	f2aca8e9 	movk	x9, #0x6547, lsl #16
   100002e7c:	f2cc5069 	movk	x9, #0x6283, lsl #32
   100002e80:	f2e04b49 	movk	x9, #0x25a, lsl #48
   100002e84:	cb090108 	sub	x8, x8, x9
   100002e88:	d29d7fc9 	mov	x9, #0xebfe                	// #60414
   100002e8c:	f2aa6549 	movk	x9, #0x532a, lsl #16
   100002e90:	f2df9269 	movk	x9, #0xfc93, lsl #32
   100002e94:	f2f66009 	movk	x9, #0xb300, lsl #48
   100002e98:	8a090109 	and	x9, x8, x9
   100002e9c:	d29d7fca 	mov	x10, #0xebfe                	// #60414
   100002ea0:	f2aa654a 	movk	x10, #0x532a, lsl #16
   100002ea4:	f2df926a 	movk	x10, #0xfc93, lsl #32
   100002ea8:	f2f6600a 	movk	x10, #0xb300, lsl #48
   100002eac:	aa0a0108 	orr	x8, x8, x10
   100002eb0:	8b080128 	add	x8, x9, x8
   100002eb4:	d288e9e9 	mov	x9, #0x474f                	// #18255
   100002eb8:	f2adbf89 	movk	x9, #0x6dfc, lsl #16
   100002ebc:	f2ccc509 	movk	x9, #0x6628, lsl #32
   100002ec0:	f2f8b9a9 	movk	x9, #0xc5cd, lsl #48
   100002ec4:	8b090108 	add	x8, x8, x9
   100002ec8:	d2821a69 	mov	x9, #0x10d3                	// #4307
   100002ecc:	f2b363c9 	movk	x9, #0x9b1e, lsl #16
   100002ed0:	f2c4a929 	movk	x9, #0x2549, lsl #32
   100002ed4:	f2e110e9 	movk	x9, #0x887, lsl #48
   100002ed8:	cb090108 	sub	x8, x8, x9
   100002edc:	d288e9e9 	mov	x9, #0x474f                	// #18255
   100002ee0:	f2adbf89 	movk	x9, #0x6dfc, lsl #16
   100002ee4:	f2ccc509 	movk	x9, #0x6628, lsl #32
   100002ee8:	f2f8b9a9 	movk	x9, #0xc5cd, lsl #48
   100002eec:	cb090108 	sub	x8, x8, x9
   100002ef0:	d28fa949 	mov	x9, #0x7d4a                	// #32074
   100002ef4:	f2b97d49 	movk	x9, #0xcbea, lsl #16
   100002ef8:	f2cf8f49 	movk	x9, #0x7c7a, lsl #32
   100002efc:	f2e8c709 	movk	x9, #0x4638, lsl #48
   100002f00:	8b090108 	add	x8, x8, x9
   100002f04:	d29d7fc9 	mov	x9, #0xebfe                	// #60414
   100002f08:	f2aa6549 	movk	x9, #0x532a, lsl #16
   100002f0c:	f2df9269 	movk	x9, #0xfc93, lsl #32
   100002f10:	f2f66009 	movk	x9, #0xb300, lsl #48
   100002f14:	cb090108 	sub	x8, x8, x9
   100002f18:	d28fa949 	mov	x9, #0x7d4a                	// #32074
   100002f1c:	f2b97d49 	movk	x9, #0xcbea, lsl #16
   100002f20:	f2cf8f49 	movk	x9, #0x7c7a, lsl #32
   100002f24:	f2e8c709 	movk	x9, #0x4638, lsl #48
   100002f28:	cb090108 	sub	x8, x8, x9
   100002f2c:	f90023e8 	str	x8, [sp, #64]
   100002f30:	f85c03a0 	ldur	x0, [x29, #-64]
   100002f34:	940001cf 	bl	100003670 <__ZNKSt3__18ios_base5widthB8ue170006Ev>
   100002f38:	f9001fe0 	str	x0, [sp, #56]
   100002f3c:	f9401fe8 	ldr	x8, [sp, #56]
   100002f40:	f94023e9 	ldr	x9, [sp, #64]
   100002f44:	eb09011f 	cmp	x8, x9
   100002f48:	54000d2d 	b.le	1000030ec <__ZNSt3__116__pad_and_outputB8ue170006IcNS_11char_traitsIcEEEENS_19ostreambuf_iteratorIT_T0_EES6_PKS4_S8_S8_RNS_8ios_baseES4_+0x394>
   100002f4c:	f94023e8 	ldr	x8, [sp, #64]
   100002f50:	f9401fe9 	ldr	x9, [sp, #56]
   100002f54:	d281ce0a 	mov	x10, #0xe70                 	// #3696
   100002f58:	f2a8c06a 	movk	x10, #0x4603, lsl #16
   100002f5c:	f2c3a52a 	movk	x10, #0x1d29, lsl #32
   100002f60:	f2e911ca 	movk	x10, #0x488e, lsl #48
   100002f64:	9280000b 	mov	x11, #0xffffffffffffffff    	// #-1
   100002f68:	ca0b014a 	eor	x10, x10, x11
   100002f6c:	ca0a012a 	eor	x10, x9, x10
   100002f70:	8a09014a 	and	x10, x10, x9
   100002f74:	d281ce0b 	mov	x11, #0xe70                 	// #3696
   100002f78:	f2a8c06b 	movk	x11, #0x4603, lsl #16
   100002f7c:	f2c3a52b 	movk	x11, #0x1d29, lsl #32
   100002f80:	f2e911cb 	movk	x11, #0x488e, lsl #48
   100002f84:	8a0b012b 	and	x11, x9, x11
   100002f88:	d281ce0c 	mov	x12, #0xe70                 	// #3696
   100002f8c:	f2a8c06c 	movk	x12, #0x4603, lsl #16
   100002f90:	f2c3a52c 	movk	x12, #0x1d29, lsl #32
   100002f94:	f2e911cc 	movk	x12, #0x488e, lsl #48
   100002f98:	ca0c0129 	eor	x9, x9, x12
   100002f9c:	aa090169 	orr	x9, x11, x9
   100002fa0:	8a09014b 	and	x11, x10, x9
   100002fa4:	aa090149 	orr	x9, x10, x9
   100002fa8:	8b090169 	add	x9, x11, x9
   100002fac:	d28dffea 	mov	x10, #0x6fff                	// #28671
   100002fb0:	f2a4ba2a 	movk	x10, #0x25d1, lsl #16
   100002fb4:	f2d0724a 	movk	x10, #0x8392, lsl #32
   100002fb8:	f2edd7ca 	movk	x10, #0x6ebe, lsl #48
   100002fbc:	8a0a012a 	and	x10, x9, x10
   100002fc0:	d28dffeb 	mov	x11, #0x6fff                	// #28671
   100002fc4:	f2a4ba2b 	movk	x11, #0x25d1, lsl #16
   100002fc8:	f2d0724b 	movk	x11, #0x8392, lsl #32
   100002fcc:	f2edd7cb 	movk	x11, #0x6ebe, lsl #48
   100002fd0:	aa0b0129 	orr	x9, x9, x11
   100002fd4:	8b090149 	add	x9, x10, x9
   100002fd8:	d295bdea 	mov	x10, #0xadef                	// #44527
   100002fdc:	f2b8092a 	movk	x10, #0xc049, lsl #16
   100002fe0:	f2db0c4a 	movk	x10, #0xd862, lsl #32
   100002fe4:	f2f16aaa 	movk	x10, #0x8b55, lsl #48
   100002fe8:	8b0a0129 	add	x9, x9, x10
   100002fec:	cb080128 	sub	x8, x9, x8
   100002ff0:	d295bde9 	mov	x9, #0xadef                	// #44527
   100002ff4:	f2b80929 	movk	x9, #0xc049, lsl #16
   100002ff8:	f2db0c49 	movk	x9, #0xd862, lsl #32
   100002ffc:	f2f16aa9 	movk	x9, #0x8b55, lsl #48
   100003000:	cb090108 	sub	x8, x8, x9
   100003004:	d2868f69 	mov	x9, #0x347b                	// #13435
   100003008:	f2bf51e9 	movk	x9, #0xfa8f, lsl #16
   10000300c:	f2d07f29 	movk	x9, #0x83f9, lsl #32
   100003010:	f2ff3669 	movk	x9, #0xf9b3, lsl #48
   100003014:	8b090108 	add	x8, x8, x9
   100003018:	d28dffe9 	mov	x9, #0x6fff                	// #28671
   10000301c:	f2a4ba29 	movk	x9, #0x25d1, lsl #16
   100003020:	f2d07249 	movk	x9, #0x8392, lsl #32
   100003024:	f2edd7c9 	movk	x9, #0x6ebe, lsl #48
   100003028:	cb090108 	sub	x8, x8, x9
   10000302c:	d2868f69 	mov	x9, #0x347b                	// #13435
   100003030:	f2bf51e9 	movk	x9, #0xfa8f, lsl #16
   100003034:	f2d07f29 	movk	x9, #0x83f9, lsl #32
   100003038:	f2ff3669 	movk	x9, #0xf9b3, lsl #48
   10000303c:	cb090108 	sub	x8, x8, x9
   100003040:	d293ad09 	mov	x9, #0x9d68                	// #40296
   100003044:	f2bde729 	movk	x9, #0xef39, lsl #16
   100003048:	f2c0f909 	movk	x9, #0x7c8, lsl #32
   10000304c:	f2ecf069 	movk	x9, #0x6783, lsl #48
   100003050:	8a090109 	and	x9, x8, x9
   100003054:	d293ad0a 	mov	x10, #0x9d68                	// #40296
   100003058:	f2bde72a 	movk	x10, #0xef39, lsl #16
   10000305c:	f2c0f90a 	movk	x10, #0x7c8, lsl #32
   100003060:	f2ecf06a 	movk	x10, #0x6783, lsl #48
   100003064:	aa0a0108 	orr	x8, x8, x10
   100003068:	8b080128 	add	x8, x9, x8
   10000306c:	d29b22e9 	mov	x9, #0xd917                	// #55575
   100003070:	f2bc9f89 	movk	x9, #0xe4fc, lsl #16
   100003074:	f2dfbfc9 	movk	x9, #0xfdfe, lsl #32
   100003078:	f2e50d49 	movk	x9, #0x286a, lsl #48
   10000307c:	8b090108 	add	x8, x8, x9
   100003080:	d281ce09 	mov	x9, #0xe70                 	// #3696
   100003084:	f2a8c069 	movk	x9, #0x4603, lsl #16
   100003088:	f2c3a529 	movk	x9, #0x1d29, lsl #32
   10000308c:	f2e911c9 	movk	x9, #0x488e, lsl #48
   100003090:	cb090108 	sub	x8, x8, x9
   100003094:	d29b22e9 	mov	x9, #0xd917                	// #55575
   100003098:	f2bc9f89 	movk	x9, #0xe4fc, lsl #16
   10000309c:	f2dfbfc9 	movk	x9, #0xfdfe, lsl #32
   1000030a0:	f2e50d49 	movk	x9, #0x286a, lsl #48
   1000030a4:	cb090108 	sub	x8, x8, x9
   1000030a8:	d293e569 	mov	x9, #0x9f2b                	// #40747
   1000030ac:	f2baf9c9 	movk	x9, #0xd7ce, lsl #16
   1000030b0:	f2dc6649 	movk	x9, #0xe332, lsl #32
   1000030b4:	f2f0c569 	movk	x9, #0x862b, lsl #48
   1000030b8:	8b090108 	add	x8, x8, x9
   1000030bc:	d293ad09 	mov	x9, #0x9d68                	// #40296
   1000030c0:	f2bde729 	movk	x9, #0xef39, lsl #16
   1000030c4:	f2c0f909 	movk	x9, #0x7c8, lsl #32
   1000030c8:	f2ecf069 	movk	x9, #0x6783, lsl #48
   1000030cc:	cb090108 	sub	x8, x8, x9
   1000030d0:	d293e569 	mov	x9, #0x9f2b                	// #40747
   1000030d4:	f2baf9c9 	movk	x9, #0xd7ce, lsl #16
   1000030d8:	f2dc6649 	movk	x9, #0xe332, lsl #32
   1000030dc:	f2f0c569 	movk	x9, #0x862b, lsl #48
   1000030e0:	cb090108 	sub	x8, x8, x9
   1000030e4:	f9001fe8 	str	x8, [sp, #56]
   1000030e8:	14000002 	b	1000030f0 <__ZNSt3__116__pad_and_outputB8ue170006IcNS_11char_traitsIcEEEENS_19ostreambuf_iteratorIT_T0_EES6_PKS4_S8_S8_RNS_8ios_baseES4_+0x398>
   1000030ec:	f9001fff 	str	xzr, [sp, #56]
   1000030f0:	f85d03a8 	ldur	x8, [x29, #-48]
   1000030f4:	f85d83a9 	ldur	x9, [x29, #-40]
   1000030f8:	d291234a 	mov	x10, #0x891a                	// #35098
   1000030fc:	f2a6ecaa 	movk	x10, #0x3765, lsl #16
   100003100:	f2c16b0a 	movk	x10, #0xb58, lsl #32
   100003104:	f2f8bf8a 	movk	x10, #0xc5fc, lsl #48
   100003108:	9280000b 	mov	x11, #0xffffffffffffffff    	// #-1
   10000310c:	ca0b014a 	eor	x10, x10, x11
   100003110:	ca0a010a 	eor	x10, x8, x10
   100003114:	8a08014a 	and	x10, x10, x8
   100003118:	d291234b 	mov	x11, #0x891a                	// #35098
   10000311c:	f2a6ecab 	movk	x11, #0x3765, lsl #16
   100003120:	f2c16b0b 	movk	x11, #0xb58, lsl #32
   100003124:	f2f8bf8b 	movk	x11, #0xc5fc, lsl #48
   100003128:	8a0b010b 	and	x11, x8, x11
   10000312c:	d291234c 	mov	x12, #0x891a                	// #35098
   100003130:	f2a6ecac 	movk	x12, #0x3765, lsl #16
   100003134:	f2c16b0c 	movk	x12, #0xb58, lsl #32
   100003138:	f2f8bf8c 	movk	x12, #0xc5fc, lsl #48
   10000313c:	ca0c0108 	eor	x8, x8, x12
   100003140:	aa080168 	orr	x8, x11, x8
   100003144:	8a08014b 	and	x11, x10, x8
   100003148:	aa080148 	orr	x8, x10, x8
   10000314c:	8b080168 	add	x8, x11, x8
   100003150:	d294d90a 	mov	x10, #0xa6c8                	// #42696
   100003154:	f2aeceea 	movk	x10, #0x7677, lsl #16
   100003158:	f2d70bea 	movk	x10, #0xb85f, lsl #32
   10000315c:	f2ea2c6a 	movk	x10, #0x5163, lsl #48
   100003160:	8a0a010a 	and	x10, x8, x10
   100003164:	d294d90b 	mov	x11, #0xa6c8                	// #42696
   100003168:	f2aeceeb 	movk	x11, #0x7677, lsl #16
   10000316c:	f2d70beb 	movk	x11, #0xb85f, lsl #32
   100003170:	f2ea2c6b 	movk	x11, #0x5163, lsl #48
   100003174:	aa0b0108 	orr	x8, x8, x11
   100003178:	8b080148 	add	x8, x10, x8
   10000317c:	d29819ea 	mov	x10, #0xc0cf                	// #49359
   100003180:	f2b6c5ea 	movk	x10, #0xb62f, lsl #16
   100003184:	f2c475ea 	movk	x10, #0x23af, lsl #32
   100003188:	f2eefdea 	movk	x10, #0x77ef, lsl #48
   10000318c:	8b0a0108 	add	x8, x8, x10
   100003190:	cb090108 	sub	x8, x8, x9
   100003194:	d29819e9 	mov	x9, #0xc0cf                	// #49359
   100003198:	f2b6c5e9 	movk	x9, #0xb62f, lsl #16
   10000319c:	f2c475e9 	movk	x9, #0x23af, lsl #32
   1000031a0:	f2eefde9 	movk	x9, #0x77ef, lsl #48
   1000031a4:	cb090108 	sub	x8, x8, x9
   1000031a8:	d29bd669 	mov	x9, #0xdeb3                	// #57011
   1000031ac:	f2aeee09 	movk	x9, #0x7770, lsl #16
   1000031b0:	f2c12e49 	movk	x9, #0x972, lsl #32
   1000031b4:	f2edad69 	movk	x9, #0x6d6b, lsl #48
   1000031b8:	8b090108 	add	x8, x8, x9
   1000031bc:	d294d909 	mov	x9, #0xa6c8                	// #42696
   1000031c0:	f2aecee9 	movk	x9, #0x7677, lsl #16
   1000031c4:	f2d70be9 	movk	x9, #0xb85f, lsl #32
   1000031c8:	f2ea2c69 	movk	x9, #0x5163, lsl #48
   1000031cc:	cb090108 	sub	x8, x8, x9
   1000031d0:	d29bd669 	mov	x9, #0xdeb3                	// #57011
   1000031d4:	f2aeee09 	movk	x9, #0x7770, lsl #16
   1000031d8:	f2c12e49 	movk	x9, #0x972, lsl #32
   1000031dc:	f2edad69 	movk	x9, #0x6d6b, lsl #48
   1000031e0:	cb090108 	sub	x8, x8, x9
   1000031e4:	d296d329 	mov	x9, #0xb699                	// #46745
   1000031e8:	f2aaed29 	movk	x9, #0x5769, lsl #16
   1000031ec:	f2db0149 	movk	x9, #0xd80a, lsl #32
   1000031f0:	f2eef929 	movk	x9, #0x77c9, lsl #48
   1000031f4:	8a090109 	and	x9, x8, x9
   1000031f8:	d296d32a 	mov	x10, #0xb699                	// #46745
   1000031fc:	f2aaed2a 	movk	x10, #0x5769, lsl #16
   100003200:	f2db014a 	movk	x10, #0xd80a, lsl #32
   100003204:	f2eef92a 	movk	x10, #0x77c9, lsl #48
   100003208:	aa0a0108 	orr	x8, x8, x10
   10000320c:	8b080128 	add	x8, x9, x8
   100003210:	d29907a9 	mov	x9, #0xc83d                	// #51261
   100003214:	f2b3a5e9 	movk	x9, #0x9d2f, lsl #16
   100003218:	f2d43e89 	movk	x9, #0xa1f4, lsl #32
   10000321c:	f2ed9949 	movk	x9, #0x6cca, lsl #48
   100003220:	8b090108 	add	x8, x8, x9
   100003224:	d2912349 	mov	x9, #0x891a                	// #35098
   100003228:	f2a6eca9 	movk	x9, #0x3765, lsl #16
   10000322c:	f2c16b09 	movk	x9, #0xb58, lsl #32
   100003230:	f2f8bf89 	movk	x9, #0xc5fc, lsl #48
   100003234:	cb090108 	sub	x8, x8, x9
   100003238:	d29907a9 	mov	x9, #0xc83d                	// #51261
   10000323c:	f2b3a5e9 	movk	x9, #0x9d2f, lsl #16
   100003240:	f2d43e89 	movk	x9, #0xa1f4, lsl #32
   100003244:	f2ed9949 	movk	x9, #0x6cca, lsl #48
   100003248:	cb090108 	sub	x8, x8, x9
   10000324c:	d292ee29 	mov	x9, #0x9771                	// #38769
   100003250:	f2b011e9 	movk	x9, #0x808f, lsl #16
   100003254:	f2d702c9 	movk	x9, #0xb816, lsl #32
   100003258:	f2e415c9 	movk	x9, #0x20ae, lsl #48
   10000325c:	8b090108 	add	x8, x8, x9
   100003260:	d296d329 	mov	x9, #0xb699                	// #46745
   100003264:	f2aaed29 	movk	x9, #0x5769, lsl #16
   100003268:	f2db0149 	movk	x9, #0xd80a, lsl #32
   10000326c:	f2eef929 	movk	x9, #0x77c9, lsl #48
   100003270:	cb090108 	sub	x8, x8, x9
   100003274:	d292ee29 	mov	x9, #0x9771                	// #38769
   100003278:	f2b011e9 	movk	x9, #0x808f, lsl #16
   10000327c:	f2d702c9 	movk	x9, #0xb816, lsl #32
   100003280:	f2e415c9 	movk	x9, #0x20ae, lsl #48
   100003284:	cb090108 	sub	x8, x8, x9
   100003288:	f9001be8 	str	x8, [sp, #48]
   10000328c:	f9401be8 	ldr	x8, [sp, #48]
   100003290:	f100011f 	cmp	x8, #0x0
   100003294:	540001ad 	b.le	1000032c8 <__ZNSt3__116__pad_and_outputB8ue170006IcNS_11char_traitsIcEEEENS_19ostreambuf_iteratorIT_T0_EES6_PKS4_S8_S8_RNS_8ios_baseES4_+0x570>
   100003298:	f85e03a0 	ldur	x0, [x29, #-32]
   10000329c:	f85d83a1 	ldur	x1, [x29, #-40]
   1000032a0:	f9401be2 	ldr	x2, [sp, #48]
   1000032a4:	940000f9 	bl	100003688 <__ZNSt3__115basic_streambufIcNS_11char_traitsIcEEE5sputnB8ue170006EPKcl>
   1000032a8:	f9401be8 	ldr	x8, [sp, #48]
   1000032ac:	eb08001f 	cmp	x0, x8
   1000032b0:	540000a0 	b.eq	1000032c4 <__ZNSt3__116__pad_and_outputB8ue170006IcNS_11char_traitsIcEEEENS_19ostreambuf_iteratorIT_T0_EES6_PKS4_S8_S8_RNS_8ios_baseES4_+0x56c>  // b.none
   1000032b4:	f81e03bf 	stur	xzr, [x29, #-32]
   1000032b8:	f85e03a8 	ldur	x8, [x29, #-32]
   1000032bc:	f81e83a8 	stur	x8, [x29, #-24]
   1000032c0:	140000a2 	b	100003548 <__ZNSt3__116__pad_and_outputB8ue170006IcNS_11char_traitsIcEEEENS_19ostreambuf_iteratorIT_T0_EES6_PKS4_S8_S8_RNS_8ios_baseES4_+0x7f0>
   1000032c4:	14000001 	b	1000032c8 <__ZNSt3__116__pad_and_outputB8ue170006IcNS_11char_traitsIcEEEENS_19ostreambuf_iteratorIT_T0_EES6_PKS4_S8_S8_RNS_8ios_baseES4_+0x570>
   1000032c8:	f9401fe8 	ldr	x8, [sp, #56]
   1000032cc:	f100011f 	cmp	x8, #0x0
   1000032d0:	5400046d 	b.le	10000335c <__ZNSt3__116__pad_and_outputB8ue170006IcNS_11char_traitsIcEEEENS_19ostreambuf_iteratorIT_T0_EES6_PKS4_S8_S8_RNS_8ios_baseES4_+0x604>
   1000032d4:	f9401fe1 	ldr	x1, [sp, #56]
   1000032d8:	38dbf3a2 	ldursb	w2, [x29, #-65]
   1000032dc:	910063e0 	add	x0, sp, #0x18
   1000032e0:	940000f9 	bl	1000036c4 <__ZNSt3__112basic_stringIcNS_11char_traitsIcEENS_9allocatorIcEEEC1B8ue170006Emc>
   1000032e4:	f85e03b3 	ldur	x19, [x29, #-32]
   1000032e8:	910063e0 	add	x0, sp, #0x18
   1000032ec:	94000108 	bl	10000370c <__ZNSt3__112basic_stringIcNS_11char_traitsIcEENS_9allocatorIcEEE4dataB8ue170006Ev>
   1000032f0:	aa0003e1 	mov	x1, x0
   1000032f4:	f9401fe2 	ldr	x2, [sp, #56]
   1000032f8:	aa1303e0 	mov	x0, x19
   1000032fc:	940000e3 	bl	100003688 <__ZNSt3__115basic_streambufIcNS_11char_traitsIcEEE5sputnB8ue170006EPKcl>
   100003300:	14000001 	b	100003304 <__ZNSt3__116__pad_and_outputB8ue170006IcNS_11char_traitsIcEEEENS_19ostreambuf_iteratorIT_T0_EES6_PKS4_S8_S8_RNS_8ios_baseES4_+0x5ac>
   100003304:	f9401fe8 	ldr	x8, [sp, #56]
   100003308:	eb08001f 	cmp	x0, x8
   10000330c:	54000180 	b.eq	10000333c <__ZNSt3__116__pad_and_outputB8ue170006IcNS_11char_traitsIcEEEENS_19ostreambuf_iteratorIT_T0_EES6_PKS4_S8_S8_RNS_8ios_baseES4_+0x5e4>  // b.none
   100003310:	f81e03bf 	stur	xzr, [x29, #-32]
   100003314:	f85e03a8 	ldur	x8, [x29, #-32]
   100003318:	f81e83a8 	stur	x8, [x29, #-24]
   10000331c:	52800028 	mov	w8, #0x1                   	// #1
   100003320:	b9000be8 	str	w8, [sp, #8]
   100003324:	14000007 	b	100003340 <__ZNSt3__116__pad_and_outputB8ue170006IcNS_11char_traitsIcEEEENS_19ostreambuf_iteratorIT_T0_EES6_PKS4_S8_S8_RNS_8ios_baseES4_+0x5e8>
   100003328:	f9000be0 	str	x0, [sp, #16]
   10000332c:	b9000fe1 	str	w1, [sp, #12]
   100003330:	910063e0 	add	x0, sp, #0x18
   100003334:	94000285 	bl	100003d48 <__ZNSt3__118__constexpr_strlenB8ue170006EPKc+0x54>
   100003338:	14000089 	b	10000355c <__ZNSt3__116__pad_and_outputB8ue170006IcNS_11char_traitsIcEEEENS_19ostreambuf_iteratorIT_T0_EES6_PKS4_S8_S8_RNS_8ios_baseES4_+0x804>
   10000333c:	b9000bff 	str	wzr, [sp, #8]
   100003340:	910063e0 	add	x0, sp, #0x18
   100003344:	94000281 	bl	100003d48 <__ZNSt3__118__constexpr_strlenB8ue170006EPKc+0x54>
   100003348:	b9400be8 	ldr	w8, [sp, #8]
   10000334c:	34000068 	cbz	w8, 100003358 <__ZNSt3__116__pad_and_outputB8ue170006IcNS_11char_traitsIcEEEENS_19ostreambuf_iteratorIT_T0_EES6_PKS4_S8_S8_RNS_8ios_baseES4_+0x600>
   100003350:	14000001 	b	100003354 <__ZNSt3__116__pad_and_outputB8ue170006IcNS_11char_traitsIcEEEENS_19ostreambuf_iteratorIT_T0_EES6_PKS4_S8_S8_RNS_8ios_baseES4_+0x5fc>
   100003354:	1400007d 	b	100003548 <__ZNSt3__116__pad_and_outputB8ue170006IcNS_11char_traitsIcEEEENS_19ostreambuf_iteratorIT_T0_EES6_PKS4_S8_S8_RNS_8ios_baseES4_+0x7f0>
   100003358:	14000001 	b	10000335c <__ZNSt3__116__pad_and_outputB8ue170006IcNS_11char_traitsIcEEEENS_19ostreambuf_iteratorIT_T0_EES6_PKS4_S8_S8_RNS_8ios_baseES4_+0x604>
   10000335c:	f85c83a8 	ldur	x8, [x29, #-56]
   100003360:	f85d03a9 	ldur	x9, [x29, #-48]
   100003364:	d28d508a 	mov	x10, #0x6a84                	// #27268
   100003368:	f2bb89ea 	movk	x10, #0xdc4f, lsl #16
   10000336c:	f2c5e1aa 	movk	x10, #0x2f0d, lsl #32
   100003370:	f2f4190a 	movk	x10, #0xa0c8, lsl #48
   100003374:	9280000b 	mov	x11, #0xffffffffffffffff    	// #-1
   100003378:	ca0b014a 	eor	x10, x10, x11
   10000337c:	ca0a010a 	eor	x10, x8, x10
   100003380:	8a08014a 	and	x10, x10, x8
   100003384:	d28d508b 	mov	x11, #0x6a84                	// #27268
   100003388:	f2bb89eb 	movk	x11, #0xdc4f, lsl #16
   10000338c:	f2c5e1ab 	movk	x11, #0x2f0d, lsl #32
   100003390:	f2f4190b 	movk	x11, #0xa0c8, lsl #48
   100003394:	8a0b010b 	and	x11, x8, x11
   100003398:	d28d508c 	mov	x12, #0x6a84                	// #27268
   10000339c:	f2bb89ec 	movk	x12, #0xdc4f, lsl #16
   1000033a0:	f2c5e1ac 	movk	x12, #0x2f0d, lsl #32
   1000033a4:	f2f4190c 	movk	x12, #0xa0c8, lsl #48
   1000033a8:	ca0c0108 	eor	x8, x8, x12
   1000033ac:	aa080168 	orr	x8, x11, x8
   1000033b0:	8a08014b 	and	x11, x10, x8
   1000033b4:	aa080148 	orr	x8, x10, x8
   1000033b8:	8b080168 	add	x8, x11, x8
   1000033bc:	d281da0a 	mov	x10, #0xed0                 	// #3792
   1000033c0:	f2aad0aa 	movk	x10, #0x5685, lsl #16
   1000033c4:	f2c32a2a 	movk	x10, #0x1951, lsl #32
   1000033c8:	f2fe6b8a 	movk	x10, #0xf35c, lsl #48
   1000033cc:	8a0a010a 	and	x10, x8, x10
   1000033d0:	d281da0b 	mov	x11, #0xed0                 	// #3792
   1000033d4:	f2aad0ab 	movk	x11, #0x5685, lsl #16
   1000033d8:	f2c32a2b 	movk	x11, #0x1951, lsl #32
   1000033dc:	f2fe6b8b 	movk	x11, #0xf35c, lsl #48
   1000033e0:	aa0b0108 	orr	x8, x8, x11
   1000033e4:	8b080148 	add	x8, x10, x8
   1000033e8:	d286cfaa 	mov	x10, #0x367d                	// #13949
   1000033ec:	f2bbc24a 	movk	x10, #0xde12, lsl #16
   1000033f0:	f2d903aa 	movk	x10, #0xc81d, lsl #32
   1000033f4:	f2e587ca 	movk	x10, #0x2c3e, lsl #48
   1000033f8:	8b0a0108 	add	x8, x8, x10
   1000033fc:	cb090108 	sub	x8, x8, x9
   100003400:	d286cfa9 	mov	x9, #0x367d                	// #13949
   100003404:	f2bbc249 	movk	x9, #0xde12, lsl #16
   100003408:	f2d903a9 	movk	x9, #0xc81d, lsl #32
   10000340c:	f2e587c9 	movk	x9, #0x2c3e, lsl #48
   100003410:	cb090108 	sub	x8, x8, x9
   100003414:	d2849aa9 	mov	x9, #0x24d5                	// #9429
   100003418:	f2ae3d69 	movk	x9, #0x71eb, lsl #16
   10000341c:	f2d291a9 	movk	x9, #0x948d, lsl #32
   100003420:	f2ee9ce9 	movk	x9, #0x74e7, lsl #48
   100003424:	8b090108 	add	x8, x8, x9
   100003428:	d281da09 	mov	x9, #0xed0                 	// #3792
   10000342c:	f2aad0a9 	movk	x9, #0x5685, lsl #16
   100003430:	f2c32a29 	movk	x9, #0x1951, lsl #32
   100003434:	f2fe6b89 	movk	x9, #0xf35c, lsl #48
   100003438:	cb090108 	sub	x8, x8, x9
   10000343c:	d2849aa9 	mov	x9, #0x24d5                	// #9429
   100003440:	f2ae3d69 	movk	x9, #0x71eb, lsl #16
   100003444:	f2d291a9 	movk	x9, #0x948d, lsl #32
   100003448:	f2ee9ce9 	movk	x9, #0x74e7, lsl #48
   10000344c:	cb090108 	sub	x8, x8, x9
   100003450:	d28e0309 	mov	x9, #0x7018                	// #28696
   100003454:	f2a39c69 	movk	x9, #0x1ce3, lsl #16
   100003458:	f2c23329 	movk	x9, #0x1199, lsl #32
   10000345c:	f2ea3089 	movk	x9, #0x5184, lsl #48
   100003460:	8a090109 	and	x9, x8, x9
   100003464:	d28e030a 	mov	x10, #0x7018                	// #28696
   100003468:	f2a39c6a 	movk	x10, #0x1ce3, lsl #16
   10000346c:	f2c2332a 	movk	x10, #0x1199, lsl #32
   100003470:	f2ea308a 	movk	x10, #0x5184, lsl #48
   100003474:	aa0a0108 	orr	x8, x8, x10
   100003478:	8b080128 	add	x8, x9, x8
   10000347c:	d2891529 	mov	x9, #0x48a9                	// #18601
   100003480:	f2bd61e9 	movk	x9, #0xeb0f, lsl #16
   100003484:	f2c74ca9 	movk	x9, #0x3a65, lsl #32
   100003488:	f2ef65c9 	movk	x9, #0x7b2e, lsl #48
   10000348c:	8b090108 	add	x8, x8, x9
   100003490:	d28d5089 	mov	x9, #0x6a84                	// #27268
   100003494:	f2bb89e9 	movk	x9, #0xdc4f, lsl #16
   100003498:	f2c5e1a9 	movk	x9, #0x2f0d, lsl #32
   10000349c:	f2f41909 	movk	x9, #0xa0c8, lsl #48
   1000034a0:	cb090108 	sub	x8, x8, x9
   1000034a4:	d2891529 	mov	x9, #0x48a9                	// #18601
   1000034a8:	f2bd61e9 	movk	x9, #0xeb0f, lsl #16
   1000034ac:	f2c74ca9 	movk	x9, #0x3a65, lsl #32
   1000034b0:	f2ef65c9 	movk	x9, #0x7b2e, lsl #48
   1000034b4:	cb090108 	sub	x8, x8, x9
   1000034b8:	d29a1b89 	mov	x9, #0xd0dc                	// #53468
   1000034bc:	f2b04069 	movk	x9, #0x8203, lsl #16
   1000034c0:	f2c6e2e9 	movk	x9, #0x3717, lsl #32
   1000034c4:	f2fbcd29 	movk	x9, #0xde69, lsl #48
   1000034c8:	8b090108 	add	x8, x8, x9
   1000034cc:	d28e0309 	mov	x9, #0x7018                	// #28696
   1000034d0:	f2a39c69 	movk	x9, #0x1ce3, lsl #16
   1000034d4:	f2c23329 	movk	x9, #0x1199, lsl #32
   1000034d8:	f2ea3089 	movk	x9, #0x5184, lsl #48
   1000034dc:	cb090108 	sub	x8, x8, x9
   1000034e0:	d29a1b89 	mov	x9, #0xd0dc                	// #53468
   1000034e4:	f2b04069 	movk	x9, #0x8203, lsl #16
   1000034e8:	f2c6e2e9 	movk	x9, #0x3717, lsl #32
   1000034ec:	f2fbcd29 	movk	x9, #0xde69, lsl #48
   1000034f0:	cb090108 	sub	x8, x8, x9
   1000034f4:	f9001be8 	str	x8, [sp, #48]
   1000034f8:	f9401be8 	ldr	x8, [sp, #48]
   1000034fc:	f100011f 	cmp	x8, #0x0
   100003500:	540001ad 	b.le	100003534 <__ZNSt3__116__pad_and_outputB8ue170006IcNS_11char_traitsIcEEEENS_19ostreambuf_iteratorIT_T0_EES6_PKS4_S8_S8_RNS_8ios_baseES4_+0x7dc>
   100003504:	f85e03a0 	ldur	x0, [x29, #-32]
   100003508:	f85d03a1 	ldur	x1, [x29, #-48]
   10000350c:	f9401be2 	ldr	x2, [sp, #48]
   100003510:	9400005e 	bl	100003688 <__ZNSt3__115basic_streambufIcNS_11char_traitsIcEEE5sputnB8ue170006EPKcl>
   100003514:	f9401be8 	ldr	x8, [sp, #48]
   100003518:	eb08001f 	cmp	x0, x8
   10000351c:	540000a0 	b.eq	100003530 <__ZNSt3__116__pad_and_outputB8ue170006IcNS_11char_traitsIcEEEENS_19ostreambuf_iteratorIT_T0_EES6_PKS4_S8_S8_RNS_8ios_baseES4_+0x7d8>  // b.none
   100003520:	f81e03bf 	stur	xzr, [x29, #-32]
   100003524:	f85e03a8 	ldur	x8, [x29, #-32]
   100003528:	f81e83a8 	stur	x8, [x29, #-24]
   10000352c:	14000007 	b	100003548 <__ZNSt3__116__pad_and_outputB8ue170006IcNS_11char_traitsIcEEEENS_19ostreambuf_iteratorIT_T0_EES6_PKS4_S8_S8_RNS_8ios_baseES4_+0x7f0>
   100003530:	14000001 	b	100003534 <__ZNSt3__116__pad_and_outputB8ue170006IcNS_11char_traitsIcEEEENS_19ostreambuf_iteratorIT_T0_EES6_PKS4_S8_S8_RNS_8ios_baseES4_+0x7dc>
   100003534:	f85c03a0 	ldur	x0, [x29, #-64]
   100003538:	d2800001 	mov	x1, #0x0                   	// #0
   10000353c:	9400007e 	bl	100003734 <__ZNSt3__18ios_base5widthB8ue170006El>
   100003540:	f85e03a8 	ldur	x8, [x29, #-32]
   100003544:	f81e83a8 	stur	x8, [x29, #-24]
   100003548:	f85e83a0 	ldur	x0, [x29, #-24]
   10000354c:	a9497bfd 	ldp	x29, x30, [sp, #144]
   100003550:	a9484ff4 	ldp	x20, x19, [sp, #128]
   100003554:	910283ff 	add	sp, sp, #0xa0
   100003558:	d65f03c0 	ret
   10000355c:	f9400be0 	ldr	x0, [sp, #16]
   100003560:	940001ee 	bl	100003d18 <__ZNSt3__118__constexpr_strlenB8ue170006EPKc+0x24>

0000000100003564 <__ZNSt3__119ostreambuf_iteratorIcNS_11char_traitsIcEEEC1B8ue170006ERNS_13basic_ostreamIcS2_EE>:
   100003564:	d100c3ff 	sub	sp, sp, #0x30
   100003568:	a9014ff4 	stp	x20, x19, [sp, #16]
   10000356c:	a9027bfd 	stp	x29, x30, [sp, #32]
   100003570:	910083fd 	add	x29, sp, #0x20
   100003574:	f90007e0 	str	x0, [sp, #8]
   100003578:	f90003e1 	str	x1, [sp]
   10000357c:	f94007f3 	ldr	x19, [sp, #8]
   100003580:	f94003e1 	ldr	x1, [sp]
   100003584:	aa1303e0 	mov	x0, x19
   100003588:	9400012d 	bl	100003a3c <__ZNSt3__119ostreambuf_iteratorIcNS_11char_traitsIcEEEC2B8ue170006ERNS_13basic_ostreamIcS2_EE>
   10000358c:	aa1303e0 	mov	x0, x19
   100003590:	a9427bfd 	ldp	x29, x30, [sp, #32]
   100003594:	a9414ff4 	ldp	x20, x19, [sp, #16]
   100003598:	9100c3ff 	add	sp, sp, #0x30
   10000359c:	d65f03c0 	ret

00000001000035a0 <__ZNKSt3__18ios_base5flagsB8ue170006Ev>:
   1000035a0:	d10043ff 	sub	sp, sp, #0x10
   1000035a4:	f90007e0 	str	x0, [sp, #8]
   1000035a8:	f94007e8 	ldr	x8, [sp, #8]
   1000035ac:	b9400900 	ldr	w0, [x8, #8]
   1000035b0:	910043ff 	add	sp, sp, #0x10
   1000035b4:	d65f03c0 	ret

00000001000035b8 <__ZNKSt3__19basic_iosIcNS_11char_traitsIcEEE4fillB8ue170006Ev>:
   1000035b8:	d100c3ff 	sub	sp, sp, #0x30
   1000035bc:	a9014ff4 	stp	x20, x19, [sp, #16]
   1000035c0:	a9027bfd 	stp	x29, x30, [sp, #32]
   1000035c4:	910083fd 	add	x29, sp, #0x20
   1000035c8:	f90007e0 	str	x0, [sp, #8]
   1000035cc:	f94007f3 	ldr	x19, [sp, #8]
   1000035d0:	94000148 	bl	100003af0 <__ZNSt3__111char_traitsIcE3eofB8ue170006Ev>
   1000035d4:	b9409261 	ldr	w1, [x19, #144]
   1000035d8:	9400013c 	bl	100003ac8 <__ZNSt3__111char_traitsIcE11eq_int_typeB8ue170006Eii>
   1000035dc:	360000e0 	tbz	w0, #0, 1000035f8 <__ZNKSt3__19basic_iosIcNS_11char_traitsIcEEE4fillB8ue170006Ev+0x40>
   1000035e0:	52800408 	mov	w8, #0x20                  	// #32
   1000035e4:	aa1303e0 	mov	x0, x19
   1000035e8:	13001d01 	sxtb	w1, w8
   1000035ec:	94000143 	bl	100003af8 <__ZNKSt3__19basic_iosIcNS_11char_traitsIcEEE5widenB8ue170006Ec>
   1000035f0:	13001c08 	sxtb	w8, w0
   1000035f4:	b9009268 	str	w8, [x19, #144]
   1000035f8:	b9409268 	ldr	w8, [x19, #144]
   1000035fc:	13001d00 	sxtb	w0, w8
   100003600:	a9427bfd 	ldp	x29, x30, [sp, #32]
   100003604:	a9414ff4 	ldp	x20, x19, [sp, #16]
   100003608:	9100c3ff 	add	sp, sp, #0x30
   10000360c:	d65f03c0 	ret

0000000100003610 <__ZNKSt3__119ostreambuf_iteratorIcNS_11char_traitsIcEEE6failedB8ue170006Ev>:
   100003610:	d10043ff 	sub	sp, sp, #0x10
   100003614:	f90007e0 	str	x0, [sp, #8]
   100003618:	f94007e8 	ldr	x8, [sp, #8]
   10000361c:	f9400108 	ldr	x8, [x8]
   100003620:	f100011f 	cmp	x8, #0x0
   100003624:	1a9f17e8 	cset	w8, eq  // eq = none
   100003628:	12000100 	and	w0, w8, #0x1
   10000362c:	910043ff 	add	sp, sp, #0x10
   100003630:	d65f03c0 	ret

0000000100003634 <__ZNSt3__19basic_iosIcNS_11char_traitsIcEEE8setstateB8ue170006Ej>:
   100003634:	d10083ff 	sub	sp, sp, #0x20
   100003638:	a9017bfd 	stp	x29, x30, [sp, #16]
   10000363c:	910043fd 	add	x29, sp, #0x10
   100003640:	f90007e0 	str	x0, [sp, #8]
   100003644:	b90007e1 	str	w1, [sp, #4]
   100003648:	f94007e0 	ldr	x0, [sp, #8]
   10000364c:	b94007e1 	ldr	w1, [sp, #4]
   100003650:	94000161 	bl	100003bd4 <__ZNSt3__18ios_base8setstateB8ue170006Ej>
   100003654:	a9417bfd 	ldp	x29, x30, [sp, #16]
   100003658:	910083ff 	add	sp, sp, #0x20
   10000365c:	d65f03c0 	ret

0000000100003660 <___clang_call_terminate>:
   100003660:	a9bf7bfd 	stp	x29, x30, [sp, #-16]!
   100003664:	910003fd 	mov	x29, sp
   100003668:	940001d9 	bl	100003dcc <__ZNSt3__118__constexpr_strlenB8ue170006EPKc+0xd8>
   10000366c:	940001d5 	bl	100003dc0 <__ZNSt3__118__constexpr_strlenB8ue170006EPKc+0xcc>

0000000100003670 <__ZNKSt3__18ios_base5widthB8ue170006Ev>:
   100003670:	d10043ff 	sub	sp, sp, #0x10
   100003674:	f90007e0 	str	x0, [sp, #8]
   100003678:	f94007e8 	ldr	x8, [sp, #8]
   10000367c:	f9400d00 	ldr	x0, [x8, #24]
   100003680:	910043ff 	add	sp, sp, #0x10
   100003684:	d65f03c0 	ret

0000000100003688 <__ZNSt3__115basic_streambufIcNS_11char_traitsIcEEE5sputnB8ue170006EPKcl>:
   100003688:	d100c3ff 	sub	sp, sp, #0x30
   10000368c:	a9027bfd 	stp	x29, x30, [sp, #32]
   100003690:	910083fd 	add	x29, sp, #0x20
   100003694:	f81f83a0 	stur	x0, [x29, #-8]
   100003698:	f9000be1 	str	x1, [sp, #16]
   10000369c:	f90007e2 	str	x2, [sp, #8]
   1000036a0:	f85f83a0 	ldur	x0, [x29, #-8]
   1000036a4:	f9400be1 	ldr	x1, [sp, #16]
   1000036a8:	f94007e2 	ldr	x2, [sp, #8]
   1000036ac:	f9400008 	ldr	x8, [x0]
   1000036b0:	f9403108 	ldr	x8, [x8, #96]
   1000036b4:	d63f0100 	blr	x8
   1000036b8:	a9427bfd 	ldp	x29, x30, [sp, #32]
   1000036bc:	9100c3ff 	add	sp, sp, #0x30
   1000036c0:	d65f03c0 	ret

00000001000036c4 <__ZNSt3__112basic_stringIcNS_11char_traitsIcEENS_9allocatorIcEEEC1B8ue170006Emc>:
   1000036c4:	d10103ff 	sub	sp, sp, #0x40
   1000036c8:	a9024ff4 	stp	x20, x19, [sp, #32]
   1000036cc:	a9037bfd 	stp	x29, x30, [sp, #48]
   1000036d0:	9100c3fd 	add	x29, sp, #0x30
   1000036d4:	f9000fe0 	str	x0, [sp, #24]
   1000036d8:	f9000be1 	str	x1, [sp, #16]
   1000036dc:	39003fe2 	strb	w2, [sp, #15]
   1000036e0:	f9400ff3 	ldr	x19, [sp, #24]
   1000036e4:	f9400be1 	ldr	x1, [sp, #16]
   1000036e8:	39403fe8 	ldrb	w8, [sp, #15]
   1000036ec:	aa1303e0 	mov	x0, x19
   1000036f0:	13001d02 	sxtb	w2, w8
   1000036f4:	9400001b 	bl	100003760 <__ZNSt3__112basic_stringIcNS_11char_traitsIcEENS_9allocatorIcEEEC2B8ue170006Emc>
   1000036f8:	aa1303e0 	mov	x0, x19
   1000036fc:	a9437bfd 	ldp	x29, x30, [sp, #48]
   100003700:	a9424ff4 	ldp	x20, x19, [sp, #32]
   100003704:	910103ff 	add	sp, sp, #0x40
   100003708:	d65f03c0 	ret

000000010000370c <__ZNSt3__112basic_stringIcNS_11char_traitsIcEENS_9allocatorIcEEE4dataB8ue170006Ev>:
   10000370c:	d10083ff 	sub	sp, sp, #0x20
   100003710:	a9017bfd 	stp	x29, x30, [sp, #16]
   100003714:	910043fd 	add	x29, sp, #0x10
   100003718:	f90007e0 	str	x0, [sp, #8]
   10000371c:	f94007e0 	ldr	x0, [sp, #8]
   100003720:	94000071 	bl	1000038e4 <__ZNSt3__112basic_stringIcNS_11char_traitsIcEENS_9allocatorIcEEE13__get_pointerB8ue170006Ev>
   100003724:	9400006b 	bl	1000038d0 <__ZNSt3__112__to_addressB8ue170006IcEEPT_S2_>
   100003728:	a9417bfd 	ldp	x29, x30, [sp, #16]
   10000372c:	910083ff 	add	sp, sp, #0x20
   100003730:	d65f03c0 	ret

0000000100003734 <__ZNSt3__18ios_base5widthB8ue170006El>:
   100003734:	d10083ff 	sub	sp, sp, #0x20
   100003738:	f9000fe0 	str	x0, [sp, #24]
   10000373c:	f9000be1 	str	x1, [sp, #16]
   100003740:	f9400fe8 	ldr	x8, [sp, #24]
   100003744:	f9400d09 	ldr	x9, [x8, #24]
   100003748:	f90007e9 	str	x9, [sp, #8]
   10000374c:	f9400be9 	ldr	x9, [sp, #16]
   100003750:	f9000d09 	str	x9, [x8, #24]
   100003754:	f94007e0 	ldr	x0, [sp, #8]
   100003758:	910083ff 	add	sp, sp, #0x20
   10000375c:	d65f03c0 	ret

0000000100003760 <__ZNSt3__112basic_stringIcNS_11char_traitsIcEENS_9allocatorIcEEEC2B8ue170006Emc>:
   100003760:	d10103ff 	sub	sp, sp, #0x40
   100003764:	a9024ff4 	stp	x20, x19, [sp, #32]
   100003768:	a9037bfd 	stp	x29, x30, [sp, #48]
   10000376c:	9100c3fd 	add	x29, sp, #0x30
   100003770:	f9000fe0 	str	x0, [sp, #24]
   100003774:	f9000be1 	str	x1, [sp, #16]
   100003778:	39003fe2 	strb	w2, [sp, #15]
   10000377c:	f9400ff3 	ldr	x19, [sp, #24]
   100003780:	aa1303e0 	mov	x0, x19
   100003784:	91003be1 	add	x1, sp, #0xe
   100003788:	910037e2 	add	x2, sp, #0xd
   10000378c:	9400000b 	bl	1000037b8 <__ZNSt3__117__compressed_pairINS_12basic_stringIcNS_11char_traitsIcEENS_9allocatorIcEEE5__repES5_EC1B8ue170006INS_18__default_init_tagESA_EEOT_OT0_>
   100003790:	f9400be1 	ldr	x1, [sp, #16]
   100003794:	39403fe8 	ldrb	w8, [sp, #15]
   100003798:	aa1303e0 	mov	x0, x19
   10000379c:	13001d02 	sxtb	w2, w8
   1000037a0:	94000167 	bl	100003d3c <__ZNSt3__118__constexpr_strlenB8ue170006EPKc+0x48>
   1000037a4:	aa1303e0 	mov	x0, x19
   1000037a8:	a9437bfd 	ldp	x29, x30, [sp, #48]
   1000037ac:	a9424ff4 	ldp	x20, x19, [sp, #32]
   1000037b0:	910103ff 	add	sp, sp, #0x40
   1000037b4:	d65f03c0 	ret

00000001000037b8 <__ZNSt3__117__compressed_pairINS_12basic_stringIcNS_11char_traitsIcEENS_9allocatorIcEEE5__repES5_EC1B8ue170006INS_18__default_init_tagESA_EEOT_OT0_>:
   1000037b8:	d10103ff 	sub	sp, sp, #0x40
   1000037bc:	a9024ff4 	stp	x20, x19, [sp, #32]
   1000037c0:	a9037bfd 	stp	x29, x30, [sp, #48]
   1000037c4:	9100c3fd 	add	x29, sp, #0x30
   1000037c8:	f9000fe0 	str	x0, [sp, #24]
   1000037cc:	f9000be1 	str	x1, [sp, #16]
   1000037d0:	f90007e2 	str	x2, [sp, #8]
   1000037d4:	f9400ff3 	ldr	x19, [sp, #24]
   1000037d8:	f9400be1 	ldr	x1, [sp, #16]
   1000037dc:	f94007e2 	ldr	x2, [sp, #8]
   1000037e0:	aa1303e0 	mov	x0, x19
   1000037e4:	94000006 	bl	1000037fc <__ZNSt3__117__compressed_pairINS_12basic_stringIcNS_11char_traitsIcEENS_9allocatorIcEEE5__repES5_EC2B8ue170006INS_18__default_init_tagESA_EEOT_OT0_>
   1000037e8:	aa1303e0 	mov	x0, x19
   1000037ec:	a9437bfd 	ldp	x29, x30, [sp, #48]
   1000037f0:	a9424ff4 	ldp	x20, x19, [sp, #32]
   1000037f4:	910103ff 	add	sp, sp, #0x40
   1000037f8:	d65f03c0 	ret

00000001000037fc <__ZNSt3__117__compressed_pairINS_12basic_stringIcNS_11char_traitsIcEENS_9allocatorIcEEE5__repES5_EC2B8ue170006INS_18__default_init_tagESA_EEOT_OT0_>:
   1000037fc:	d10103ff 	sub	sp, sp, #0x40
   100003800:	a9024ff4 	stp	x20, x19, [sp, #32]
   100003804:	a9037bfd 	stp	x29, x30, [sp, #48]
   100003808:	9100c3fd 	add	x29, sp, #0x30
   10000380c:	f9000fe0 	str	x0, [sp, #24]
   100003810:	f9000be1 	str	x1, [sp, #16]
   100003814:	f90007e2 	str	x2, [sp, #8]
   100003818:	f9400ff3 	ldr	x19, [sp, #24]
   10000381c:	aa1303e0 	mov	x0, x19
   100003820:	94000008 	bl	100003840 <__ZNSt3__122__compressed_pair_elemINS_12basic_stringIcNS_11char_traitsIcEENS_9allocatorIcEEE5__repELi0ELb0EEC2B8ue170006ENS_18__default_init_tagE>
   100003824:	aa1303e0 	mov	x0, x19
   100003828:	9400000b 	bl	100003854 <__ZNSt3__122__compressed_pair_elemINS_9allocatorIcEELi1ELb1EEC2B8ue170006ENS_18__default_init_tagE>
   10000382c:	aa1303e0 	mov	x0, x19
   100003830:	a9437bfd 	ldp	x29, x30, [sp, #48]
   100003834:	a9424ff4 	ldp	x20, x19, [sp, #32]
   100003838:	910103ff 	add	sp, sp, #0x40
   10000383c:	d65f03c0 	ret

0000000100003840 <__ZNSt3__122__compressed_pair_elemINS_12basic_stringIcNS_11char_traitsIcEENS_9allocatorIcEEE5__repELi0ELb0EEC2B8ue170006ENS_18__default_init_tagE>:
   100003840:	d10043ff 	sub	sp, sp, #0x10
   100003844:	f90003e0 	str	x0, [sp]
   100003848:	f94003e0 	ldr	x0, [sp]
   10000384c:	910043ff 	add	sp, sp, #0x10
   100003850:	d65f03c0 	ret

0000000100003854 <__ZNSt3__122__compressed_pair_elemINS_9allocatorIcEELi1ELb1EEC2B8ue170006ENS_18__default_init_tagE>:
   100003854:	d100c3ff 	sub	sp, sp, #0x30
   100003858:	a9014ff4 	stp	x20, x19, [sp, #16]
   10000385c:	a9027bfd 	stp	x29, x30, [sp, #32]
   100003860:	910083fd 	add	x29, sp, #0x20
   100003864:	f90003e0 	str	x0, [sp]
   100003868:	f94003f3 	ldr	x19, [sp]
   10000386c:	aa1303e0 	mov	x0, x19
   100003870:	94000006 	bl	100003888 <__ZNSt3__19allocatorIcEC2B8ue170006Ev>
   100003874:	aa1303e0 	mov	x0, x19
   100003878:	a9427bfd 	ldp	x29, x30, [sp, #32]
   10000387c:	a9414ff4 	ldp	x20, x19, [sp, #16]
   100003880:	9100c3ff 	add	sp, sp, #0x30
   100003884:	d65f03c0 	ret

0000000100003888 <__ZNSt3__19allocatorIcEC2B8ue170006Ev>:
   100003888:	d100c3ff 	sub	sp, sp, #0x30
   10000388c:	a9014ff4 	stp	x20, x19, [sp, #16]
   100003890:	a9027bfd 	stp	x29, x30, [sp, #32]
   100003894:	910083fd 	add	x29, sp, #0x20
   100003898:	f90007e0 	str	x0, [sp, #8]
   10000389c:	f94007f3 	ldr	x19, [sp, #8]
   1000038a0:	aa1303e0 	mov	x0, x19
   1000038a4:	94000006 	bl	1000038bc <__ZNSt3__116__non_trivial_ifILb1ENS_9allocatorIcEEEC2B8ue170006Ev>
   1000038a8:	aa1303e0 	mov	x0, x19
   1000038ac:	a9427bfd 	ldp	x29, x30, [sp, #32]
   1000038b0:	a9414ff4 	ldp	x20, x19, [sp, #16]
   1000038b4:	9100c3ff 	add	sp, sp, #0x30
   1000038b8:	d65f03c0 	ret

00000001000038bc <__ZNSt3__116__non_trivial_ifILb1ENS_9allocatorIcEEEC2B8ue170006Ev>:
   1000038bc:	d10043ff 	sub	sp, sp, #0x10
   1000038c0:	f90007e0 	str	x0, [sp, #8]
   1000038c4:	f94007e0 	ldr	x0, [sp, #8]
   1000038c8:	910043ff 	add	sp, sp, #0x10
   1000038cc:	d65f03c0 	ret

00000001000038d0 <__ZNSt3__112__to_addressB8ue170006IcEEPT_S2_>:
   1000038d0:	d10043ff 	sub	sp, sp, #0x10
   1000038d4:	f90007e0 	str	x0, [sp, #8]
   1000038d8:	f94007e0 	ldr	x0, [sp, #8]
   1000038dc:	910043ff 	add	sp, sp, #0x10
   1000038e0:	d65f03c0 	ret

00000001000038e4 <__ZNSt3__112basic_stringIcNS_11char_traitsIcEENS_9allocatorIcEEE13__get_pointerB8ue170006Ev>:
   1000038e4:	d100c3ff 	sub	sp, sp, #0x30
   1000038e8:	a9014ff4 	stp	x20, x19, [sp, #16]
   1000038ec:	a9027bfd 	stp	x29, x30, [sp, #32]
   1000038f0:	910083fd 	add	x29, sp, #0x20
   1000038f4:	f90007e0 	str	x0, [sp, #8]
   1000038f8:	f94007f3 	ldr	x19, [sp, #8]
   1000038fc:	aa1303e0 	mov	x0, x19
   100003900:	9400000b 	bl	10000392c <__ZNKSt3__112basic_stringIcNS_11char_traitsIcEENS_9allocatorIcEEE9__is_longB8ue170006Ev>
   100003904:	36000080 	tbz	w0, #0, 100003914 <__ZNSt3__112basic_stringIcNS_11char_traitsIcEENS_9allocatorIcEEE13__get_pointerB8ue170006Ev+0x30>
   100003908:	aa1303e0 	mov	x0, x19
   10000390c:	94000017 	bl	100003968 <__ZNSt3__112basic_stringIcNS_11char_traitsIcEENS_9allocatorIcEEE18__get_long_pointerB8ue170006Ev>
   100003910:	14000003 	b	10000391c <__ZNSt3__112basic_stringIcNS_11char_traitsIcEENS_9allocatorIcEEE13__get_pointerB8ue170006Ev+0x38>
   100003914:	aa1303e0 	mov	x0, x19
   100003918:	9400001e 	bl	100003990 <__ZNSt3__112basic_stringIcNS_11char_traitsIcEENS_9allocatorIcEEE19__get_short_pointerB8ue170006Ev>
   10000391c:	a9427bfd 	ldp	x29, x30, [sp, #32]
   100003920:	a9414ff4 	ldp	x20, x19, [sp, #16]
   100003924:	9100c3ff 	add	sp, sp, #0x30
   100003928:	d65f03c0 	ret

000000010000392c <__ZNKSt3__112basic_stringIcNS_11char_traitsIcEENS_9allocatorIcEEE9__is_longB8ue170006Ev>:
   10000392c:	d10083ff 	sub	sp, sp, #0x20
   100003930:	a9017bfd 	stp	x29, x30, [sp, #16]
   100003934:	910043fd 	add	x29, sp, #0x10
   100003938:	f90007e0 	str	x0, [sp, #8]
   10000393c:	f94007e0 	ldr	x0, [sp, #8]
   100003940:	9400001e 	bl	1000039b8 <__ZNKSt3__117__compressed_pairINS_12basic_stringIcNS_11char_traitsIcEENS_9allocatorIcEEE5__repES5_E5firstB8ue170006Ev>
   100003944:	39405c08 	ldrb	w8, [x0, #23]
   100003948:	53071d08 	ubfx	w8, w8, #7, #1
   10000394c:	13001d08 	sxtb	w8, w8
   100003950:	7100011f 	cmp	w8, #0x0
   100003954:	1a9f07e8 	cset	w8, ne  // ne = any
   100003958:	12000100 	and	w0, w8, #0x1
   10000395c:	a9417bfd 	ldp	x29, x30, [sp, #16]
   100003960:	910083ff 	add	sp, sp, #0x20
   100003964:	d65f03c0 	ret

0000000100003968 <__ZNSt3__112basic_stringIcNS_11char_traitsIcEENS_9allocatorIcEEE18__get_long_pointerB8ue170006Ev>:
   100003968:	d10083ff 	sub	sp, sp, #0x20
   10000396c:	a9017bfd 	stp	x29, x30, [sp, #16]
   100003970:	910043fd 	add	x29, sp, #0x10
   100003974:	f90007e0 	str	x0, [sp, #8]
   100003978:	f94007e0 	ldr	x0, [sp, #8]
   10000397c:	9400001d 	bl	1000039f0 <__ZNSt3__117__compressed_pairINS_12basic_stringIcNS_11char_traitsIcEENS_9allocatorIcEEE5__repES5_E5firstB8ue170006Ev>
   100003980:	f9400000 	ldr	x0, [x0]
   100003984:	a9417bfd 	ldp	x29, x30, [sp, #16]
   100003988:	910083ff 	add	sp, sp, #0x20
   10000398c:	d65f03c0 	ret

0000000100003990 <__ZNSt3__112basic_stringIcNS_11char_traitsIcEENS_9allocatorIcEEE19__get_short_pointerB8ue170006Ev>:
   100003990:	d10083ff 	sub	sp, sp, #0x20
   100003994:	a9017bfd 	stp	x29, x30, [sp, #16]
   100003998:	910043fd 	add	x29, sp, #0x10
   10000399c:	f90007e0 	str	x0, [sp, #8]
   1000039a0:	f94007e0 	ldr	x0, [sp, #8]
   1000039a4:	94000013 	bl	1000039f0 <__ZNSt3__117__compressed_pairINS_12basic_stringIcNS_11char_traitsIcEENS_9allocatorIcEEE5__repES5_E5firstB8ue170006Ev>
   1000039a8:	94000020 	bl	100003a28 <__ZNSt3__114pointer_traitsIPcE10pointer_toB8ue170006ERc>
   1000039ac:	a9417bfd 	ldp	x29, x30, [sp, #16]
   1000039b0:	910083ff 	add	sp, sp, #0x20
   1000039b4:	d65f03c0 	ret

00000001000039b8 <__ZNKSt3__117__compressed_pairINS_12basic_stringIcNS_11char_traitsIcEENS_9allocatorIcEEE5__repES5_E5firstB8ue170006Ev>:
   1000039b8:	d10083ff 	sub	sp, sp, #0x20
   1000039bc:	a9017bfd 	stp	x29, x30, [sp, #16]
   1000039c0:	910043fd 	add	x29, sp, #0x10
   1000039c4:	f90007e0 	str	x0, [sp, #8]
   1000039c8:	f94007e0 	ldr	x0, [sp, #8]
   1000039cc:	94000004 	bl	1000039dc <__ZNKSt3__122__compressed_pair_elemINS_12basic_stringIcNS_11char_traitsIcEENS_9allocatorIcEEE5__repELi0ELb0EE5__getB8ue170006Ev>
   1000039d0:	a9417bfd 	ldp	x29, x30, [sp, #16]
   1000039d4:	910083ff 	add	sp, sp, #0x20
   1000039d8:	d65f03c0 	ret

00000001000039dc <__ZNKSt3__122__compressed_pair_elemINS_12basic_stringIcNS_11char_traitsIcEENS_9allocatorIcEEE5__repELi0ELb0EE5__getB8ue170006Ev>:
   1000039dc:	d10043ff 	sub	sp, sp, #0x10
   1000039e0:	f90007e0 	str	x0, [sp, #8]
   1000039e4:	f94007e0 	ldr	x0, [sp, #8]
   1000039e8:	910043ff 	add	sp, sp, #0x10
   1000039ec:	d65f03c0 	ret

00000001000039f0 <__ZNSt3__117__compressed_pairINS_12basic_stringIcNS_11char_traitsIcEENS_9allocatorIcEEE5__repES5_E5firstB8ue170006Ev>:
   1000039f0:	d10083ff 	sub	sp, sp, #0x20
   1000039f4:	a9017bfd 	stp	x29, x30, [sp, #16]
   1000039f8:	910043fd 	add	x29, sp, #0x10
   1000039fc:	f90007e0 	str	x0, [sp, #8]
   100003a00:	f94007e0 	ldr	x0, [sp, #8]
   100003a04:	94000004 	bl	100003a14 <__ZNSt3__122__compressed_pair_elemINS_12basic_stringIcNS_11char_traitsIcEENS_9allocatorIcEEE5__repELi0ELb0EE5__getB8ue170006Ev>
   100003a08:	a9417bfd 	ldp	x29, x30, [sp, #16]
   100003a0c:	910083ff 	add	sp, sp, #0x20
   100003a10:	d65f03c0 	ret

0000000100003a14 <__ZNSt3__122__compressed_pair_elemINS_12basic_stringIcNS_11char_traitsIcEENS_9allocatorIcEEE5__repELi0ELb0EE5__getB8ue170006Ev>:
   100003a14:	d10043ff 	sub	sp, sp, #0x10
   100003a18:	f90007e0 	str	x0, [sp, #8]
   100003a1c:	f94007e0 	ldr	x0, [sp, #8]
   100003a20:	910043ff 	add	sp, sp, #0x10
   100003a24:	d65f03c0 	ret

0000000100003a28 <__ZNSt3__114pointer_traitsIPcE10pointer_toB8ue170006ERc>:
   100003a28:	d10043ff 	sub	sp, sp, #0x10
   100003a2c:	f90007e0 	str	x0, [sp, #8]
   100003a30:	f94007e0 	ldr	x0, [sp, #8]
   100003a34:	910043ff 	add	sp, sp, #0x10
   100003a38:	d65f03c0 	ret

0000000100003a3c <__ZNSt3__119ostreambuf_iteratorIcNS_11char_traitsIcEEEC2B8ue170006ERNS_13basic_ostreamIcS2_EE>:
   100003a3c:	d100c3ff 	sub	sp, sp, #0x30
   100003a40:	a9014ff4 	stp	x20, x19, [sp, #16]
   100003a44:	a9027bfd 	stp	x29, x30, [sp, #32]
   100003a48:	910083fd 	add	x29, sp, #0x20
   100003a4c:	f90007e0 	str	x0, [sp, #8]
   100003a50:	f90003e1 	str	x1, [sp]
   100003a54:	f94007f3 	ldr	x19, [sp, #8]
   100003a58:	f94003e8 	ldr	x8, [sp]
   100003a5c:	f9400109 	ldr	x9, [x8]
   100003a60:	f85e8129 	ldur	x9, [x9, #-24]
   100003a64:	8b090100 	add	x0, x8, x9
   100003a68:	94000009 	bl	100003a8c <__ZNKSt3__19basic_iosIcNS_11char_traitsIcEEE5rdbufB8ue170006Ev>
   100003a6c:	14000001 	b	100003a70 <__ZNSt3__119ostreambuf_iteratorIcNS_11char_traitsIcEEEC2B8ue170006ERNS_13basic_ostreamIcS2_EE+0x34>
   100003a70:	f9000260 	str	x0, [x19]
   100003a74:	aa1303e0 	mov	x0, x19
   100003a78:	a9427bfd 	ldp	x29, x30, [sp, #32]
   100003a7c:	a9414ff4 	ldp	x20, x19, [sp, #16]
   100003a80:	9100c3ff 	add	sp, sp, #0x30
   100003a84:	d65f03c0 	ret
   100003a88:	97fffef6 	bl	100003660 <___clang_call_terminate>

0000000100003a8c <__ZNKSt3__19basic_iosIcNS_11char_traitsIcEEE5rdbufB8ue170006Ev>:
   100003a8c:	d10083ff 	sub	sp, sp, #0x20
   100003a90:	a9017bfd 	stp	x29, x30, [sp, #16]
   100003a94:	910043fd 	add	x29, sp, #0x10
   100003a98:	f90007e0 	str	x0, [sp, #8]
   100003a9c:	f94007e0 	ldr	x0, [sp, #8]
   100003aa0:	94000004 	bl	100003ab0 <__ZNKSt3__18ios_base5rdbufB8ue170006Ev>
   100003aa4:	a9417bfd 	ldp	x29, x30, [sp, #16]
   100003aa8:	910083ff 	add	sp, sp, #0x20
   100003aac:	d65f03c0 	ret

0000000100003ab0 <__ZNKSt3__18ios_base5rdbufB8ue170006Ev>:
   100003ab0:	d10043ff 	sub	sp, sp, #0x10
   100003ab4:	f90007e0 	str	x0, [sp, #8]
   100003ab8:	f94007e8 	ldr	x8, [sp, #8]
   100003abc:	f9401500 	ldr	x0, [x8, #40]
   100003ac0:	910043ff 	add	sp, sp, #0x10
   100003ac4:	d65f03c0 	ret

0000000100003ac8 <__ZNSt3__111char_traitsIcE11eq_int_typeB8ue170006Eii>:
   100003ac8:	d10043ff 	sub	sp, sp, #0x10
   100003acc:	b9000fe0 	str	w0, [sp, #12]
   100003ad0:	b9000be1 	str	w1, [sp, #8]
   100003ad4:	b9400fe8 	ldr	w8, [sp, #12]
   100003ad8:	b9400be9 	ldr	w9, [sp, #8]
   100003adc:	6b09011f 	cmp	w8, w9
   100003ae0:	1a9f17e8 	cset	w8, eq  // eq = none
   100003ae4:	12000100 	and	w0, w8, #0x1
   100003ae8:	910043ff 	add	sp, sp, #0x10
   100003aec:	d65f03c0 	ret

0000000100003af0 <__ZNSt3__111char_traitsIcE3eofB8ue170006Ev>:
   100003af0:	12800000 	mov	w0, #0xffffffff            	// #-1
   100003af4:	d65f03c0 	ret

0000000100003af8 <__ZNKSt3__19basic_iosIcNS_11char_traitsIcEEE5widenB8ue170006Ec>:
   100003af8:	d10143ff 	sub	sp, sp, #0x50
   100003afc:	a9034ff4 	stp	x20, x19, [sp, #48]
   100003b00:	a9047bfd 	stp	x29, x30, [sp, #64]
   100003b04:	910103fd 	add	x29, sp, #0x40
   100003b08:	f81e83a0 	stur	x0, [x29, #-24]
   100003b0c:	381e73a1 	sturb	w1, [x29, #-25]
   100003b10:	f85e83a0 	ldur	x0, [x29, #-24]
   100003b14:	910063e8 	add	x8, sp, #0x18
   100003b18:	94000086 	bl	100003d30 <__ZNSt3__118__constexpr_strlenB8ue170006EPKc+0x3c>
   100003b1c:	910063e0 	add	x0, sp, #0x18
   100003b20:	94000013 	bl	100003b6c <__ZNSt3__19use_facetB8ue170006INS_5ctypeIcEEEERKT_RKNS_6localeE>
   100003b24:	14000001 	b	100003b28 <__ZNKSt3__19basic_iosIcNS_11char_traitsIcEEE5widenB8ue170006Ec+0x30>
   100003b28:	38de73a1 	ldursb	w1, [x29, #-25]
   100003b2c:	9400001b 	bl	100003b98 <__ZNKSt3__15ctypeIcE5widenB8ue170006Ec>
   100003b30:	aa0003f3 	mov	x19, x0
   100003b34:	14000001 	b	100003b38 <__ZNKSt3__19basic_iosIcNS_11char_traitsIcEEE5widenB8ue170006Ec+0x40>
   100003b38:	910063e0 	add	x0, sp, #0x18
   100003b3c:	94000098 	bl	100003d9c <__ZNSt3__118__constexpr_strlenB8ue170006EPKc+0xa8>
   100003b40:	13001e60 	sxtb	w0, w19
   100003b44:	a9447bfd 	ldp	x29, x30, [sp, #64]
   100003b48:	a9434ff4 	ldp	x20, x19, [sp, #48]
   100003b4c:	910143ff 	add	sp, sp, #0x50
   100003b50:	d65f03c0 	ret
   100003b54:	f9000be0 	str	x0, [sp, #16]
   100003b58:	b9000fe1 	str	w1, [sp, #12]
   100003b5c:	910063e0 	add	x0, sp, #0x18
   100003b60:	9400008f 	bl	100003d9c <__ZNSt3__118__constexpr_strlenB8ue170006EPKc+0xa8>
   100003b64:	f9400be0 	ldr	x0, [sp, #16]
   100003b68:	9400006c 	bl	100003d18 <__ZNSt3__118__constexpr_strlenB8ue170006EPKc+0x24>

0000000100003b6c <__ZNSt3__19use_facetB8ue170006INS_5ctypeIcEEEERKT_RKNS_6localeE>:
   100003b6c:	d10083ff 	sub	sp, sp, #0x20
   100003b70:	a9017bfd 	stp	x29, x30, [sp, #16]
   100003b74:	910043fd 	add	x29, sp, #0x10
   100003b78:	f90007e0 	str	x0, [sp, #8]
   100003b7c:	f94007e0 	ldr	x0, [sp, #8]
   100003b80:	b0000008 	adrp	x8, 100004000 <GCC_except_table51+0x1a4>
   100003b84:	f9403501 	ldr	x1, [x8, #104]
   100003b88:	94000067 	bl	100003d24 <__ZNSt3__118__constexpr_strlenB8ue170006EPKc+0x30>
   100003b8c:	a9417bfd 	ldp	x29, x30, [sp, #16]
   100003b90:	910083ff 	add	sp, sp, #0x20
   100003b94:	d65f03c0 	ret

0000000100003b98 <__ZNKSt3__15ctypeIcE5widenB8ue170006Ec>:
   100003b98:	d10083ff 	sub	sp, sp, #0x20
   100003b9c:	a9017bfd 	stp	x29, x30, [sp, #16]
   100003ba0:	910043fd 	add	x29, sp, #0x10
   100003ba4:	f90007e0 	str	x0, [sp, #8]
   100003ba8:	39001fe1 	strb	w1, [sp, #7]
   100003bac:	f94007e0 	ldr	x0, [sp, #8]
   100003bb0:	39401fe8 	ldrb	w8, [sp, #7]
   100003bb4:	f9400009 	ldr	x9, [x0]
   100003bb8:	f9401d29 	ldr	x9, [x9, #56]
   100003bbc:	13001d01 	sxtb	w1, w8
   100003bc0:	d63f0120 	blr	x9
   100003bc4:	13001c00 	sxtb	w0, w0
   100003bc8:	a9417bfd 	ldp	x29, x30, [sp, #16]
   100003bcc:	910083ff 	add	sp, sp, #0x20
   100003bd0:	d65f03c0 	ret

0000000100003bd4 <__ZNSt3__18ios_base8setstateB8ue170006Ej>:
   100003bd4:	d10083ff 	sub	sp, sp, #0x20
   100003bd8:	a9017bfd 	stp	x29, x30, [sp, #16]
   100003bdc:	910043fd 	add	x29, sp, #0x10
   100003be0:	f90007e0 	str	x0, [sp, #8]
   100003be4:	b90007e1 	str	w1, [sp, #4]
   100003be8:	f94007e0 	ldr	x0, [sp, #8]
   100003bec:	b9402008 	ldr	w8, [x0, #32]
   100003bf0:	b94007e9 	ldr	w9, [sp, #4]
   100003bf4:	1280000a 	mov	w10, #0xffffffff            	// #-1
   100003bf8:	4a0a012a 	eor	w10, w9, w10
   100003bfc:	1280000b 	mov	w11, #0xffffffff            	// #-1
   100003c00:	0a0b014a 	and	w10, w10, w11
   100003c04:	1280000b 	mov	w11, #0xffffffff            	// #-1
   100003c08:	4a0b016b 	eor	w11, w11, w11
   100003c0c:	0a0b012b 	and	w11, w9, w11
   100003c10:	2a0b014a 	orr	w10, w10, w11
   100003c14:	1280000b 	mov	w11, #0xffffffff            	// #-1
   100003c18:	4a0b010b 	eor	w11, w8, w11
   100003c1c:	0a0b014b 	and	w11, w10, w11
   100003c20:	1280000c 	mov	w12, #0xffffffff            	// #-1
   100003c24:	4a0c014a 	eor	w10, w10, w12
   100003c28:	0a0a010a 	and	w10, w8, w10
   100003c2c:	2a0a016a 	orr	w10, w11, w10
   100003c30:	1280000b 	mov	w11, #0xffffffff            	// #-1
   100003c34:	4a0b010b 	eor	w11, w8, w11
   100003c38:	4a0b014b 	eor	w11, w10, w11
   100003c3c:	0a0a016a 	and	w10, w11, w10
   100003c40:	1280000b 	mov	w11, #0xffffffff            	// #-1
   100003c44:	4a0b010b 	eor	w11, w8, w11
   100003c48:	1280000c 	mov	w12, #0xffffffff            	// #-1
   100003c4c:	0a0c016b 	and	w11, w11, w12
   100003c50:	1280000c 	mov	w12, #0xffffffff            	// #-1
   100003c54:	4a0c018c 	eor	w12, w12, w12
   100003c58:	0a0c010c 	and	w12, w8, w12
   100003c5c:	2a0c016b 	orr	w11, w11, w12
   100003c60:	1280000c 	mov	w12, #0xffffffff            	// #-1
   100003c64:	4a0c012c 	eor	w12, w9, w12
   100003c68:	4a0b018b 	eor	w11, w12, w11
   100003c6c:	0a09016b 	and	w11, w11, w9
   100003c70:	1280000c 	mov	w12, #0xffffffff            	// #-1
   100003c74:	4a0c012c 	eor	w12, w9, w12
   100003c78:	1280000d 	mov	w13, #0xffffffff            	// #-1
   100003c7c:	0a0d018c 	and	w12, w12, w13
   100003c80:	1280000d 	mov	w13, #0xffffffff            	// #-1
   100003c84:	4a0d01ad 	eor	w13, w13, w13
   100003c88:	0a0d0129 	and	w9, w9, w13
   100003c8c:	2a090189 	orr	w9, w12, w9
   100003c90:	1280000c 	mov	w12, #0xffffffff            	// #-1
   100003c94:	4a0c0129 	eor	w9, w9, w12
   100003c98:	4a090109 	eor	w9, w8, w9
   100003c9c:	0a080128 	and	w8, w9, w8
   100003ca0:	0a080169 	and	w9, w11, w8
   100003ca4:	4a080168 	eor	w8, w11, w8
   100003ca8:	2a080128 	orr	w8, w9, w8
   100003cac:	12800009 	mov	w9, #0xffffffff            	// #-1
   100003cb0:	4a090149 	eor	w9, w10, w9
   100003cb4:	4a080129 	eor	w9, w9, w8
   100003cb8:	0a0a0129 	and	w9, w9, w10
   100003cbc:	1280000b 	mov	w11, #0xffffffff            	// #-1
   100003cc0:	4a0b014b 	eor	w11, w10, w11
   100003cc4:	0a0b010b 	and	w11, w8, w11
   100003cc8:	1280000c 	mov	w12, #0xffffffff            	// #-1
   100003ccc:	4a0c0108 	eor	w8, w8, w12
   100003cd0:	0a080148 	and	w8, w10, w8
   100003cd4:	2a080168 	orr	w8, w11, w8
   100003cd8:	0a08012a 	and	w10, w9, w8
   100003cdc:	4a080128 	eor	w8, w9, w8
   100003ce0:	2a080141 	orr	w1, w10, w8
   100003ce4:	94000034 	bl	100003db4 <__ZNSt3__118__constexpr_strlenB8ue170006EPKc+0xc0>
   100003ce8:	a9417bfd 	ldp	x29, x30, [sp, #16]
   100003cec:	910083ff 	add	sp, sp, #0x20
   100003cf0:	d65f03c0 	ret

0000000100003cf4 <__ZNSt3__118__constexpr_strlenB8ue170006EPKc>:
   100003cf4:	d10083ff 	sub	sp, sp, #0x20
   100003cf8:	a9017bfd 	stp	x29, x30, [sp, #16]
   100003cfc:	910043fd 	add	x29, sp, #0x10
   100003d00:	f90007e0 	str	x0, [sp, #8]
   100003d04:	f94007e0 	ldr	x0, [sp, #8]
   100003d08:	94000037 	bl	100003de4 <__ZNSt3__118__constexpr_strlenB8ue170006EPKc+0xf0>
   100003d0c:	a9417bfd 	ldp	x29, x30, [sp, #16]
   100003d10:	910083ff 	add	sp, sp, #0x20
   100003d14:	d65f03c0 	ret

Disassembly of section __TEXT.__stubs:

0000000100003d18 <__TEXT.__stubs>:
   100003d18:	b0000010 	adrp	x16, 100004000 <GCC_except_table51+0x1a4>
   100003d1c:	f9400210 	ldr	x16, [x16]
   100003d20:	d61f0200 	br	x16
   100003d24:	b0000010 	adrp	x16, 100004000 <GCC_except_table51+0x1a4>
   100003d28:	f9400610 	ldr	x16, [x16, #8]
   100003d2c:	d61f0200 	br	x16
   100003d30:	b0000010 	adrp	x16, 100004000 <GCC_except_table51+0x1a4>
   100003d34:	f9400a10 	ldr	x16, [x16, #16]
   100003d38:	d61f0200 	br	x16
   100003d3c:	b0000010 	adrp	x16, 100004000 <GCC_except_table51+0x1a4>
   100003d40:	f9400e10 	ldr	x16, [x16, #24]
   100003d44:	d61f0200 	br	x16
   100003d48:	b0000010 	adrp	x16, 100004000 <GCC_except_table51+0x1a4>
   100003d4c:	f9401210 	ldr	x16, [x16, #32]
   100003d50:	d61f0200 	br	x16
   100003d54:	b0000010 	adrp	x16, 100004000 <GCC_except_table51+0x1a4>
   100003d58:	f9401610 	ldr	x16, [x16, #40]
   100003d5c:	d61f0200 	br	x16
   100003d60:	b0000010 	adrp	x16, 100004000 <GCC_except_table51+0x1a4>
   100003d64:	f9401a10 	ldr	x16, [x16, #48]
   100003d68:	d61f0200 	br	x16
   100003d6c:	b0000010 	adrp	x16, 100004000 <GCC_except_table51+0x1a4>
   100003d70:	f9401e10 	ldr	x16, [x16, #56]
   100003d74:	d61f0200 	br	x16
   100003d78:	b0000010 	adrp	x16, 100004000 <GCC_except_table51+0x1a4>
   100003d7c:	f9402210 	ldr	x16, [x16, #64]
   100003d80:	d61f0200 	br	x16
   100003d84:	b0000010 	adrp	x16, 100004000 <GCC_except_table51+0x1a4>
   100003d88:	f9402610 	ldr	x16, [x16, #72]
   100003d8c:	d61f0200 	br	x16
   100003d90:	b0000010 	adrp	x16, 100004000 <GCC_except_table51+0x1a4>
   100003d94:	f9402a10 	ldr	x16, [x16, #80]
   100003d98:	d61f0200 	br	x16
   100003d9c:	b0000010 	adrp	x16, 100004000 <GCC_except_table51+0x1a4>
   100003da0:	f9403a10 	ldr	x16, [x16, #112]
   100003da4:	d61f0200 	br	x16
   100003da8:	b0000010 	adrp	x16, 100004000 <GCC_except_table51+0x1a4>
   100003dac:	f9403e10 	ldr	x16, [x16, #120]
   100003db0:	d61f0200 	br	x16
   100003db4:	b0000010 	adrp	x16, 100004000 <GCC_except_table51+0x1a4>
   100003db8:	f9404210 	ldr	x16, [x16, #128]
   100003dbc:	d61f0200 	br	x16
   100003dc0:	b0000010 	adrp	x16, 100004000 <GCC_except_table51+0x1a4>
   100003dc4:	f9404610 	ldr	x16, [x16, #136]
   100003dc8:	d61f0200 	br	x16
   100003dcc:	b0000010 	adrp	x16, 100004000 <GCC_except_table51+0x1a4>
   100003dd0:	f9404a10 	ldr	x16, [x16, #144]
   100003dd4:	d61f0200 	br	x16
   100003dd8:	b0000010 	adrp	x16, 100004000 <GCC_except_table51+0x1a4>
   100003ddc:	f9404e10 	ldr	x16, [x16, #152]
   100003de0:	d61f0200 	br	x16
   100003de4:	b0000010 	adrp	x16, 100004000 <GCC_except_table51+0x1a4>
   100003de8:	f9405610 	ldr	x16, [x16, #168]
   100003dec:	d61f0200 	br	x16

Disassembly of section __TEXT.__gcc_except_tab:

0000000100003df0 <GCC_except_table14>:
   100003df0:	01319bff 	.inst	0x01319bff ; undefined
   100003df4:	c4082426 	ldff1sb	{z6.d}, p1/z, [x1, z8.d, uxtw]
   100003df8:	8c300104 	.inst	0x8c300104 ; undefined
   100003dfc:	0104d004 	.inst	0x0104d004 ; undefined
   100003e00:	003c04bc 	.inst	0x003c04bc ; NYI
   100003e04:	0404f800 	msb	z0.b, p6/m, z4.b, z0.b
   100003e08:	fc0005ac 	str	d12, [x13], #0
   100003e0c:	00003804 	udf	#14340
   100003e10:	c80405b4 	stxr	w4, x20, [x13]
   100003e14:	05b80105 	zip1	z5.q, z8.q, z24.q
   100003e18:	01000014 	.inst	0x01000014 ; undefined
	...

0000000100003e24 <GCC_except_table15>:
   100003e24:	010d9bff 	.inst	0x010d9bff ; undefined
   100003e28:	28041404 	stnp	w4, w5, [x0, #32]
   100003e2c:	00000101 	udf	#257
   100003e30:	00000000 	udf	#0

0000000100003e34 <GCC_except_table17>:
   100003e34:	1101ffff 	add	wsp, wsp, #0x7f
   100003e38:	000ba000 	.inst	0x000ba000 ; undefined
   100003e3c:	080ba000 	stlxrb	w11, w0, [x0]
   100003e40:	a8000bd0 	stnp	x16, x2, [x30]
   100003e44:	0004e40b 	.inst	0x0004e40b ; undefined
   100003e48:	00000000 	udf	#0

0000000100003e4c <GCC_except_table46>:
   100003e4c:	010d9bff 	.inst	0x010d9bff ; undefined
   100003e50:	4c042c04 	.inst	0x4c042c04 ; undefined
   100003e54:	00000101 	udf	#257
   100003e58:	00000000 	udf	#0

0000000100003e5c <GCC_except_table51>:
   100003e5c:	0c01ffff 	.inst	0x0c01ffff ; undefined
   100003e60:	00002400 	udf	#9216
   100003e64:	005c1824 	.inst	0x005c1824 ; undefined
   100003e68:	0000383c 	udf	#14396

Disassembly of section __TEXT.__unwind_info:

0000000100003ec8 <__TEXT.__unwind_info>:
   100003ec8:	00000001 	udf	#1
   100003ecc:	0000001c 	udf	#28
   100003ed0:	00000005 	udf	#5
   100003ed4:	00000030 	udf	#48
   100003ed8:	00000001 	udf	#1
   100003edc:	00000034 	udf	#52
   100003ee0:	00000002 	udf	#2
   100003ee4:	02001000 	.inst	0x02001000 ; undefined
   100003ee8:	04000000 	add	z0.b, p0/m, z0.b, z0.b
   100003eec:	04000001 	add	z1.b, p0/m, z1.b, z0.b
   100003ef0:	54000001 	b.ne	100003ef0 <GCC_except_table51+0x94>  // b.any
   100003ef4:	02002000 	.inst	0x02002000 ; undefined
   100003ef8:	000040a0 	udf	#16544
   100003efc:	000020a0 	udf	#8352
   100003f00:	00000080 	udf	#128
   100003f04:	00000058 	udf	#88
   100003f08:	00003d18 	udf	#15640
   100003f0c:	00000000 	udf	#0
   100003f10:	00000080 	udf	#128
	...
   100003f20:	00002a44 	udf	#10820
   100003f24:	00003df0 	udf	#15856
   100003f28:	00002d10 	udf	#11536
   100003f2c:	00003e24 	udf	#15908
   100003f30:	00002d58 	udf	#11608
   100003f34:	00003e34 	udf	#15924
   100003f38:	00003a3c 	udf	#14908
   100003f3c:	00003e4c 	udf	#15948
   100003f40:	00003af8 	udf	#15096
   100003f44:	00003e5c 	udf	#15964
   100003f48:	00000003 	udf	#3
   100003f4c:	0027000c 	.inst	0x0027000c ; NYI
   100003f50:	000300a8 	.inst	0x000300a8 ; undefined
   100003f54:	00000000 	udf	#0
   100003f58:	020000c8 	.inst	0x020000c8 ; undefined
   100003f5c:	01000210 	.inst	0x01000210 ; undefined
   100003f60:	00000268 	udf	#616
   100003f64:	0200069c 	.inst	0x0200069c ; undefined
   100003f68:	01000864 	.inst	0x01000864 ; undefined
   100003f6c:	02000890 	.inst	0x02000890 ; undefined
   100003f70:	010008f0 	.inst	0x010008f0 ; undefined
   100003f74:	04000930 	add	z16.b, p2/m, z16.b, z9.b
   100003f78:	01000964 	.inst	0x01000964 ; undefined
   100003f7c:	050009a4 	orr	z4.s, z4.s, #0x80001fff
   100003f80:	06000c70 	.inst	0x06000c70 ; undefined
   100003f84:	00000c9c 	udf	#3228
   100003f88:	03000cb8 	.inst	0x03000cb8 ; undefined
   100003f8c:	020014c4 	.inst	0x020014c4 ; undefined
   100003f90:	00001500 	udf	#5376
   100003f94:	02001518 	.inst	0x02001518 ; undefined
   100003f98:	00001570 	udf	#5488
   100003f9c:	01001594 	.inst	0x01001594 ; undefined
   100003fa0:	000015d0 	udf	#5584
   100003fa4:	010015e8 	.inst	0x010015e8 ; undefined
   100003fa8:	02001624 	.inst	0x02001624 ; undefined
   100003fac:	0100166c 	.inst	0x0100166c ; undefined
   100003fb0:	04001694 	add	z20.b, p5/m, z20.b, z20.b
   100003fb4:	020016c0 	.inst	0x020016c0 ; undefined
   100003fb8:	000017a0 	udf	#6048
   100003fbc:	020017b4 	.inst	0x020017b4 ; undefined
   100003fc0:	0000181c 	udf	#6172
   100003fc4:	02001844 	.inst	0x02001844 ; undefined
   100003fc8:	0100188c 	.inst	0x0100188c ; undefined
   100003fcc:	0000193c 	udf	#6460
   100003fd0:	01001950 	.inst	0x01001950 ; undefined
   100003fd4:	00001974 	udf	#6516
   100003fd8:	0300199c 	.inst	0x0300199c ; undefined
   100003fdc:	010019ec 	.inst	0x010019ec ; undefined
   100003fe0:	00001a10 	udf	#6672
   100003fe4:	07001a50 	.inst	0x07001a50 ; undefined
   100003fe8:	03001a58 	.inst	0x03001a58 ; undefined
   100003fec:	01001acc 	.inst	0x01001acc ; undefined
   100003ff0:	54000003 	b.cc	100003ff0 <GCC_except_table51+0x194>  // b.lo, b.ul, b.last
   100003ff4:	54000000 	b.eq	100003ff4 <GCC_except_table51+0x198>  // b.none
   100003ff8:	02000000 	.inst	0x02000000 ; undefined
   100003ffc:	00000000 	udf	#0
